(lp0
(iMap
Tiles
p1
(dp2
S'color'
p3
(I255
I255
I255
tp4
sS'is_wall'
p5
I01
sS'rect'
p6
cpygame
__rect_constructor
p7
(I0
I0
I32
I32
tp8
Rp9
sba(iMap
Tiles
p10
(dp11
g3
g4
sg5
I01
sg6
g7
(I32
I0
I32
I32
tp12
Rp13
sba(iMap
Tiles
p14
(dp15
g3
g4
sg5
I01
sg6
g7
(I64
I0
I32
I32
tp16
Rp17
sba(iMap
Tiles
p18
(dp19
g3
g4
sg5
I01
sg6
g7
(I96
I0
I32
I32
tp20
Rp21
sba(iMap
Tiles
p22
(dp23
g3
g4
sg5
I01
sg6
g7
(I128
I0
I32
I32
tp24
Rp25
sba(iMap
Tiles
p26
(dp27
g3
g4
sg5
I01
sg6
g7
(I160
I0
I32
I32
tp28
Rp29
sba(iMap
Tiles
p30
(dp31
g3
g4
sg5
I01
sg6
g7
(I192
I0
I32
I32
tp32
Rp33
sba(iMap
Tiles
p34
(dp35
g3
g4
sg5
I01
sg6
g7
(I224
I0
I32
I32
tp36
Rp37
sba(iMap
Tiles
p38
(dp39
g3
g4
sg5
I01
sg6
g7
(I256
I0
I32
I32
tp40
Rp41
sba(iMap
Tiles
p42
(dp43
g3
g4
sg5
I01
sg6
g7
(I288
I0
I32
I32
tp44
Rp45
sba(iMap
Tiles
p46
(dp47
g3
g4
sg5
I01
sg6
g7
(I320
I0
I32
I32
tp48
Rp49
sba(iMap
Tiles
p50
(dp51
g3
g4
sg5
I01
sg6
g7
(I352
I0
I32
I32
tp52
Rp53
sba(iMap
Tiles
p54
(dp55
g3
g4
sg5
I01
sg6
g7
(I384
I0
I32
I32
tp56
Rp57
sba(iMap
Tiles
p58
(dp59
g3
g4
sg5
I01
sg6
g7
(I416
I0
I32
I32
tp60
Rp61
sba(iMap
Tiles
p62
(dp63
g3
g4
sg5
I01
sg6
g7
(I448
I0
I32
I32
tp64
Rp65
sba(iMap
Tiles
p66
(dp67
g3
g4
sg5
I01
sg6
g7
(I480
I0
I32
I32
tp68
Rp69
sba(iMap
Tiles
p70
(dp71
g3
g4
sg5
I01
sg6
g7
(I512
I0
I32
I32
tp72
Rp73
sba(iMap
Tiles
p74
(dp75
g3
g4
sg5
I01
sg6
g7
(I544
I0
I32
I32
tp76
Rp77
sba(iMap
Tiles
p78
(dp79
g3
g4
sg5
I01
sg6
g7
(I576
I0
I32
I32
tp80
Rp81
sba(iMap
Tiles
p82
(dp83
g3
g4
sg5
I01
sg6
g7
(I608
I0
I32
I32
tp84
Rp85
sba(iMap
Tiles
p86
(dp87
g3
g4
sg5
I01
sg6
g7
(I640
I0
I32
I32
tp88
Rp89
sba(iMap
Tiles
p90
(dp91
g3
g4
sg5
I01
sg6
g7
(I672
I0
I32
I32
tp92
Rp93
sba(iMap
Tiles
p94
(dp95
g3
g4
sg5
I01
sg6
g7
(I704
I0
I32
I32
tp96
Rp97
sba(iMap
Tiles
p98
(dp99
g3
g4
sg5
I01
sg6
g7
(I736
I0
I32
I32
tp100
Rp101
sba(iMap
Tiles
p102
(dp103
g3
g4
sg5
I01
sg6
g7
(I768
I0
I32
I32
tp104
Rp105
sba(iMap
Tiles
p106
(dp107
g3
g4
sg5
I01
sg6
g7
(I0
I32
I32
I32
tp108
Rp109
sba(iMap
Tiles
p110
(dp111
g3
g4
sg5
I01
sg6
g7
(I32
I32
I32
I32
tp112
Rp113
sba(iMap
Tiles
p114
(dp115
g3
(I0
I0
I0
tp116
sg5
I00
sg6
g7
(I64
I32
I32
I32
tp117
Rp118
sba(iMap
Tiles
p119
(dp120
g3
g116
sg5
I00
sg6
g7
(I96
I32
I32
I32
tp121
Rp122
sba(iMap
Tiles
p123
(dp124
g3
g116
sg5
I00
sg6
g7
(I128
I32
I32
I32
tp125
Rp126
sba(iMap
Tiles
p127
(dp128
g3
(I0
I0
I0
tp129
sg5
I00
sg6
g7
(I160
I32
I32
I32
tp130
Rp131
sba(iMap
Tiles
p132
(dp133
g3
g129
sg5
I00
sg6
g7
(I192
I32
I32
I32
tp134
Rp135
sba(iMap
Tiles
p136
(dp137
g3
g4
sg5
I01
sg6
g7
(I224
I32
I32
I32
tp138
Rp139
sba(iMap
Tiles
p140
(dp141
g3
g4
sg5
I01
sg6
g7
(I256
I32
I32
I32
tp142
Rp143
sba(iMap
Tiles
p144
(dp145
g3
g4
sg5
I01
sg6
g7
(I288
I32
I32
I32
tp146
Rp147
sba(iMap
Tiles
p148
(dp149
g3
g4
sg5
I01
sg6
g7
(I320
I32
I32
I32
tp150
Rp151
sba(iMap
Tiles
p152
(dp153
g3
g4
sg5
I01
sg6
g7
(I352
I32
I32
I32
tp154
Rp155
sba(iMap
Tiles
p156
(dp157
g3
g4
sg5
I01
sg6
g7
(I384
I32
I32
I32
tp158
Rp159
sba(iMap
Tiles
p160
(dp161
g3
g4
sg5
I01
sg6
g7
(I416
I32
I32
I32
tp162
Rp163
sba(iMap
Tiles
p164
(dp165
g3
g4
sg5
I01
sg6
g7
(I448
I32
I32
I32
tp166
Rp167
sba(iMap
Tiles
p168
(dp169
g3
g4
sg5
I01
sg6
g7
(I480
I32
I32
I32
tp170
Rp171
sba(iMap
Tiles
p172
(dp173
g3
g4
sg5
I01
sg6
g7
(I512
I32
I32
I32
tp174
Rp175
sba(iMap
Tiles
p176
(dp177
g3
g4
sg5
I01
sg6
g7
(I544
I32
I32
I32
tp178
Rp179
sba(iMap
Tiles
p180
(dp181
g3
g4
sg5
I01
sg6
g7
(I576
I32
I32
I32
tp182
Rp183
sba(iMap
Tiles
p184
(dp185
g3
g4
sg5
I01
sg6
g7
(I608
I32
I32
I32
tp186
Rp187
sba(iMap
Tiles
p188
(dp189
g3
g4
sg5
I01
sg6
g7
(I640
I32
I32
I32
tp190
Rp191
sba(iMap
Tiles
p192
(dp193
g3
g4
sg5
I01
sg6
g7
(I672
I32
I32
I32
tp194
Rp195
sba(iMap
Tiles
p196
(dp197
g3
g4
sg5
I01
sg6
g7
(I704
I32
I32
I32
tp198
Rp199
sba(iMap
Tiles
p200
(dp201
g3
g4
sg5
I01
sg6
g7
(I736
I32
I32
I32
tp202
Rp203
sba(iMap
Tiles
p204
(dp205
g3
g4
sg5
I01
sg6
g7
(I768
I32
I32
I32
tp206
Rp207
sba(iMap
Tiles
p208
(dp209
g3
g4
sg5
I01
sg6
g7
(I0
I64
I32
I32
tp210
Rp211
sba(iMap
Tiles
p212
(dp213
g3
g4
sg5
I01
sg6
g7
(I32
I64
I32
I32
tp214
Rp215
sba(iMap
Tiles
p216
(dp217
g3
g116
sg5
I00
sg6
g7
(I64
I64
I32
I32
tp218
Rp219
sba(iMap
Tiles
p220
(dp221
g3
g116
sg5
I00
sg6
g7
(I96
I64
I32
I32
tp222
Rp223
sba(iMap
Tiles
p224
(dp225
g3
g116
sg5
I00
sg6
g7
(I128
I64
I32
I32
tp226
Rp227
sba(iMap
Tiles
p228
(dp229
g3
g129
sg5
I00
sg6
g7
(I160
I64
I32
I32
tp230
Rp231
sba(iMap
Tiles
p232
(dp233
g3
g129
sg5
I00
sg6
g7
(I192
I64
I32
I32
tp234
Rp235
sba(iMap
Tiles
p236
(dp237
g3
(I0
I0
I0
tp238
sg5
I00
sg6
g7
(I224
I64
I32
I32
tp239
Rp240
sba(iMap
Tiles
p241
(dp242
g3
g4
sg5
I01
sg6
g7
(I256
I64
I32
I32
tp243
Rp244
sba(iMap
Tiles
p245
(dp246
g3
g4
sg5
I01
sg6
g7
(I288
I64
I32
I32
tp247
Rp248
sba(iMap
Tiles
p249
(dp250
g3
g4
sg5
I01
sg6
g7
(I320
I64
I32
I32
tp251
Rp252
sba(iMap
Tiles
p253
(dp254
g3
g4
sg5
I01
sg6
g7
(I352
I64
I32
I32
tp255
Rp256
sba(iMap
Tiles
p257
(dp258
g3
g4
sg5
I01
sg6
g7
(I384
I64
I32
I32
tp259
Rp260
sba(iMap
Tiles
p261
(dp262
g3
g4
sg5
I01
sg6
g7
(I416
I64
I32
I32
tp263
Rp264
sba(iMap
Tiles
p265
(dp266
g3
g4
sg5
I01
sg6
g7
(I448
I64
I32
I32
tp267
Rp268
sba(iMap
Tiles
p269
(dp270
g3
g4
sg5
I01
sg6
g7
(I480
I64
I32
I32
tp271
Rp272
sba(iMap
Tiles
p273
(dp274
g3
g4
sg5
I01
sg6
g7
(I512
I64
I32
I32
tp275
Rp276
sba(iMap
Tiles
p277
(dp278
g3
g4
sg5
I01
sg6
g7
(I544
I64
I32
I32
tp279
Rp280
sba(iMap
Tiles
p281
(dp282
g3
g4
sg5
I01
sg6
g7
(I576
I64
I32
I32
tp283
Rp284
sba(iMap
Tiles
p285
(dp286
g3
g4
sg5
I01
sg6
g7
(I608
I64
I32
I32
tp287
Rp288
sba(iMap
Tiles
p289
(dp290
g3
g4
sg5
I01
sg6
g7
(I640
I64
I32
I32
tp291
Rp292
sba(iMap
Tiles
p293
(dp294
g3
g4
sg5
I01
sg6
g7
(I672
I64
I32
I32
tp295
Rp296
sba(iMap
Tiles
p297
(dp298
g3
g4
sg5
I01
sg6
g7
(I704
I64
I32
I32
tp299
Rp300
sba(iMap
Tiles
p301
(dp302
g3
g4
sg5
I01
sg6
g7
(I736
I64
I32
I32
tp303
Rp304
sba(iMap
Tiles
p305
(dp306
g3
g4
sg5
I01
sg6
g7
(I768
I64
I32
I32
tp307
Rp308
sba(iMap
Tiles
p309
(dp310
g3
g4
sg5
I01
sg6
g7
(I0
I96
I32
I32
tp311
Rp312
sba(iMap
Tiles
p313
(dp314
g3
g4
sg5
I01
sg6
g7
(I32
I96
I32
I32
tp315
Rp316
sba(iMap
Tiles
p317
(dp318
g3
g116
sg5
I00
sg6
g7
(I64
I96
I32
I32
tp319
Rp320
sba(iMap
Tiles
p321
(dp322
g3
g116
sg5
I00
sg6
g7
(I96
I96
I32
I32
tp323
Rp324
sba(iMap
Tiles
p325
(dp326
g3
g116
sg5
I00
sg6
g7
(I128
I96
I32
I32
tp327
Rp328
sba(iMap
Tiles
p329
(dp330
g3
g129
sg5
I00
sg6
g7
(I160
I96
I32
I32
tp331
Rp332
sba(iMap
Tiles
p333
(dp334
g3
g129
sg5
I00
sg6
g7
(I192
I96
I32
I32
tp335
Rp336
sba(iMap
Tiles
p337
(dp338
g3
g238
sg5
I00
sg6
g7
(I224
I96
I32
I32
tp339
Rp340
sba(iMap
Tiles
p341
(dp342
g3
g4
sg5
I01
sg6
g7
(I256
I96
I32
I32
tp343
Rp344
sba(iMap
Tiles
p345
(dp346
g3
g4
sg5
I01
sg6
g7
(I288
I96
I32
I32
tp347
Rp348
sba(iMap
Tiles
p349
(dp350
g3
g4
sg5
I01
sg6
g7
(I320
I96
I32
I32
tp351
Rp352
sba(iMap
Tiles
p353
(dp354
g3
g4
sg5
I01
sg6
g7
(I352
I96
I32
I32
tp355
Rp356
sba(iMap
Tiles
p357
(dp358
g3
g4
sg5
I01
sg6
g7
(I384
I96
I32
I32
tp359
Rp360
sba(iMap
Tiles
p361
(dp362
g3
g4
sg5
I01
sg6
g7
(I416
I96
I32
I32
tp363
Rp364
sba(iMap
Tiles
p365
(dp366
g3
g4
sg5
I01
sg6
g7
(I448
I96
I32
I32
tp367
Rp368
sba(iMap
Tiles
p369
(dp370
g3
g4
sg5
I01
sg6
g7
(I480
I96
I32
I32
tp371
Rp372
sba(iMap
Tiles
p373
(dp374
g3
g4
sg5
I01
sg6
g7
(I512
I96
I32
I32
tp375
Rp376
sba(iMap
Tiles
p377
(dp378
g3
g4
sg5
I01
sg6
g7
(I544
I96
I32
I32
tp379
Rp380
sba(iMap
Tiles
p381
(dp382
g3
g4
sg5
I01
sg6
g7
(I576
I96
I32
I32
tp383
Rp384
sba(iMap
Tiles
p385
(dp386
g3
g4
sg5
I01
sg6
g7
(I608
I96
I32
I32
tp387
Rp388
sba(iMap
Tiles
p389
(dp390
g3
g4
sg5
I01
sg6
g7
(I640
I96
I32
I32
tp391
Rp392
sba(iMap
Tiles
p393
(dp394
g3
g4
sg5
I01
sg6
g7
(I672
I96
I32
I32
tp395
Rp396
sba(iMap
Tiles
p397
(dp398
g3
g4
sg5
I01
sg6
g7
(I704
I96
I32
I32
tp399
Rp400
sba(iMap
Tiles
p401
(dp402
g3
g4
sg5
I01
sg6
g7
(I736
I96
I32
I32
tp403
Rp404
sba(iMap
Tiles
p405
(dp406
g3
g4
sg5
I01
sg6
g7
(I768
I96
I32
I32
tp407
Rp408
sba(iMap
Tiles
p409
(dp410
g3
g4
sg5
I01
sg6
g7
(I0
I128
I32
I32
tp411
Rp412
sba(iMap
Tiles
p413
(dp414
g3
g4
sg5
I01
sg6
g7
(I32
I128
I32
I32
tp415
Rp416
sba(iMap
Tiles
p417
(dp418
g3
g4
sg5
I01
sg6
g7
(I64
I128
I32
I32
tp419
Rp420
sba(iMap
Tiles
p421
(dp422
g3
g4
sg5
I01
sg6
g7
(I96
I128
I32
I32
tp423
Rp424
sba(iMap
Tiles
p425
(dp426
g3
g4
sg5
I01
sg6
g7
(I128
I128
I32
I32
tp427
Rp428
sba(iMap
Tiles
p429
(dp430
g3
g4
sg5
I01
sg6
g7
(I160
I128
I32
I32
tp431
Rp432
sba(iMap
Tiles
p433
(dp434
g3
g4
sg5
I01
sg6
g7
(I192
I128
I32
I32
tp435
Rp436
sba(iMap
Tiles
p437
(dp438
g3
g238
sg5
I00
sg6
g7
(I224
I128
I32
I32
tp439
Rp440
sba(iMap
Tiles
p441
(dp442
g3
g4
sg5
I01
sg6
g7
(I256
I128
I32
I32
tp443
Rp444
sba(iMap
Tiles
p445
(dp446
g3
g4
sg5
I01
sg6
g7
(I288
I128
I32
I32
tp447
Rp448
sba(iMap
Tiles
p449
(dp450
g3
g4
sg5
I01
sg6
g7
(I320
I128
I32
I32
tp451
Rp452
sba(iMap
Tiles
p453
(dp454
g3
g4
sg5
I01
sg6
g7
(I352
I128
I32
I32
tp455
Rp456
sba(iMap
Tiles
p457
(dp458
g3
g4
sg5
I01
sg6
g7
(I384
I128
I32
I32
tp459
Rp460
sba(iMap
Tiles
p461
(dp462
g3
g4
sg5
I01
sg6
g7
(I416
I128
I32
I32
tp463
Rp464
sba(iMap
Tiles
p465
(dp466
g3
g4
sg5
I01
sg6
g7
(I448
I128
I32
I32
tp467
Rp468
sba(iMap
Tiles
p469
(dp470
g3
g4
sg5
I01
sg6
g7
(I480
I128
I32
I32
tp471
Rp472
sba(iMap
Tiles
p473
(dp474
g3
g4
sg5
I01
sg6
g7
(I512
I128
I32
I32
tp475
Rp476
sba(iMap
Tiles
p477
(dp478
g3
g4
sg5
I01
sg6
g7
(I544
I128
I32
I32
tp479
Rp480
sba(iMap
Tiles
p481
(dp482
g3
g4
sg5
I01
sg6
g7
(I576
I128
I32
I32
tp483
Rp484
sba(iMap
Tiles
p485
(dp486
g3
g4
sg5
I01
sg6
g7
(I608
I128
I32
I32
tp487
Rp488
sba(iMap
Tiles
p489
(dp490
g3
g4
sg5
I01
sg6
g7
(I640
I128
I32
I32
tp491
Rp492
sba(iMap
Tiles
p493
(dp494
g3
g4
sg5
I01
sg6
g7
(I672
I128
I32
I32
tp495
Rp496
sba(iMap
Tiles
p497
(dp498
g3
g4
sg5
I01
sg6
g7
(I704
I128
I32
I32
tp499
Rp500
sba(iMap
Tiles
p501
(dp502
g3
g4
sg5
I01
sg6
g7
(I736
I128
I32
I32
tp503
Rp504
sba(iMap
Tiles
p505
(dp506
g3
g4
sg5
I01
sg6
g7
(I768
I128
I32
I32
tp507
Rp508
sba(iMap
Tiles
p509
(dp510
g3
g4
sg5
I01
sg6
g7
(I0
I160
I32
I32
tp511
Rp512
sba(iMap
Tiles
p513
(dp514
g3
g4
sg5
I01
sg6
g7
(I32
I160
I32
I32
tp515
Rp516
sba(iMap
Tiles
p517
(dp518
g3
g4
sg5
I01
sg6
g7
(I64
I160
I32
I32
tp519
Rp520
sba(iMap
Tiles
p521
(dp522
g3
g4
sg5
I01
sg6
g7
(I96
I160
I32
I32
tp523
Rp524
sba(iMap
Tiles
p525
(dp526
g3
g4
sg5
I01
sg6
g7
(I128
I160
I32
I32
tp527
Rp528
sba(iMap
Tiles
p529
(dp530
g3
g4
sg5
I01
sg6
g7
(I160
I160
I32
I32
tp531
Rp532
sba(iMap
Tiles
p533
(dp534
g3
g4
sg5
I01
sg6
g7
(I192
I160
I32
I32
tp535
Rp536
sba(iMap
Tiles
p537
(dp538
g3
g238
sg5
I00
sg6
g7
(I224
I160
I32
I32
tp539
Rp540
sba(iMap
Tiles
p541
(dp542
g3
g4
sg5
I01
sg6
g7
(I256
I160
I32
I32
tp543
Rp544
sba(iMap
Tiles
p545
(dp546
g3
g4
sg5
I01
sg6
g7
(I288
I160
I32
I32
tp547
Rp548
sba(iMap
Tiles
p549
(dp550
g3
g4
sg5
I01
sg6
g7
(I320
I160
I32
I32
tp551
Rp552
sba(iMap
Tiles
p553
(dp554
g3
g4
sg5
I01
sg6
g7
(I352
I160
I32
I32
tp555
Rp556
sba(iMap
Tiles
p557
(dp558
g3
g4
sg5
I01
sg6
g7
(I384
I160
I32
I32
tp559
Rp560
sba(iMap
Tiles
p561
(dp562
g3
g4
sg5
I01
sg6
g7
(I416
I160
I32
I32
tp563
Rp564
sba(iMap
Tiles
p565
(dp566
g3
g4
sg5
I01
sg6
g7
(I448
I160
I32
I32
tp567
Rp568
sba(iMap
Tiles
p569
(dp570
g3
g4
sg5
I01
sg6
g7
(I480
I160
I32
I32
tp571
Rp572
sba(iMap
Tiles
p573
(dp574
g3
g4
sg5
I01
sg6
g7
(I512
I160
I32
I32
tp575
Rp576
sba(iMap
Tiles
p577
(dp578
g3
g4
sg5
I01
sg6
g7
(I544
I160
I32
I32
tp579
Rp580
sba(iMap
Tiles
p581
(dp582
g3
g4
sg5
I01
sg6
g7
(I576
I160
I32
I32
tp583
Rp584
sba(iMap
Tiles
p585
(dp586
g3
g4
sg5
I01
sg6
g7
(I608
I160
I32
I32
tp587
Rp588
sba(iMap
Tiles
p589
(dp590
g3
g4
sg5
I01
sg6
g7
(I640
I160
I32
I32
tp591
Rp592
sba(iMap
Tiles
p593
(dp594
g3
g4
sg5
I01
sg6
g7
(I672
I160
I32
I32
tp595
Rp596
sba(iMap
Tiles
p597
(dp598
g3
g4
sg5
I01
sg6
g7
(I704
I160
I32
I32
tp599
Rp600
sba(iMap
Tiles
p601
(dp602
g3
g4
sg5
I01
sg6
g7
(I736
I160
I32
I32
tp603
Rp604
sba(iMap
Tiles
p605
(dp606
g3
g4
sg5
I01
sg6
g7
(I768
I160
I32
I32
tp607
Rp608
sba(iMap
Tiles
p609
(dp610
g3
g4
sg5
I01
sg6
g7
(I0
I192
I32
I32
tp611
Rp612
sba(iMap
Tiles
p613
(dp614
g3
g4
sg5
I01
sg6
g7
(I32
I192
I32
I32
tp615
Rp616
sba(iMap
Tiles
p617
(dp618
g3
g4
sg5
I01
sg6
g7
(I64
I192
I32
I32
tp619
Rp620
sba(iMap
Tiles
p621
(dp622
g3
g4
sg5
I01
sg6
g7
(I96
I192
I32
I32
tp623
Rp624
sba(iMap
Tiles
p625
(dp626
g3
g4
sg5
I01
sg6
g7
(I128
I192
I32
I32
tp627
Rp628
sba(iMap
Tiles
p629
(dp630
g3
g4
sg5
I01
sg6
g7
(I160
I192
I32
I32
tp631
Rp632
sba(iMap
Tiles
p633
(dp634
g3
g4
sg5
I01
sg6
g7
(I192
I192
I32
I32
tp635
Rp636
sba(iMap
Tiles
p637
(dp638
g3
g238
sg5
I00
sg6
g7
(I224
I192
I32
I32
tp639
Rp640
sba(iMap
Tiles
p641
(dp642
g3
g4
sg5
I01
sg6
g7
(I256
I192
I32
I32
tp643
Rp644
sba(iMap
Tiles
p645
(dp646
g3
g4
sg5
I01
sg6
g7
(I288
I192
I32
I32
tp647
Rp648
sba(iMap
Tiles
p649
(dp650
g3
g4
sg5
I01
sg6
g7
(I320
I192
I32
I32
tp651
Rp652
sba(iMap
Tiles
p653
(dp654
g3
g4
sg5
I01
sg6
g7
(I352
I192
I32
I32
tp655
Rp656
sba(iMap
Tiles
p657
(dp658
g3
g4
sg5
I01
sg6
g7
(I384
I192
I32
I32
tp659
Rp660
sba(iMap
Tiles
p661
(dp662
g3
g4
sg5
I01
sg6
g7
(I416
I192
I32
I32
tp663
Rp664
sba(iMap
Tiles
p665
(dp666
g3
g4
sg5
I01
sg6
g7
(I448
I192
I32
I32
tp667
Rp668
sba(iMap
Tiles
p669
(dp670
g3
g4
sg5
I01
sg6
g7
(I480
I192
I32
I32
tp671
Rp672
sba(iMap
Tiles
p673
(dp674
g3
g4
sg5
I01
sg6
g7
(I512
I192
I32
I32
tp675
Rp676
sba(iMap
Tiles
p677
(dp678
g3
g4
sg5
I01
sg6
g7
(I544
I192
I32
I32
tp679
Rp680
sba(iMap
Tiles
p681
(dp682
g3
g4
sg5
I01
sg6
g7
(I576
I192
I32
I32
tp683
Rp684
sba(iMap
Tiles
p685
(dp686
g3
g4
sg5
I01
sg6
g7
(I608
I192
I32
I32
tp687
Rp688
sba(iMap
Tiles
p689
(dp690
g3
g4
sg5
I01
sg6
g7
(I640
I192
I32
I32
tp691
Rp692
sba(iMap
Tiles
p693
(dp694
g3
g4
sg5
I01
sg6
g7
(I672
I192
I32
I32
tp695
Rp696
sba(iMap
Tiles
p697
(dp698
g3
g4
sg5
I01
sg6
g7
(I704
I192
I32
I32
tp699
Rp700
sba(iMap
Tiles
p701
(dp702
g3
g4
sg5
I01
sg6
g7
(I736
I192
I32
I32
tp703
Rp704
sba(iMap
Tiles
p705
(dp706
g3
g4
sg5
I01
sg6
g7
(I768
I192
I32
I32
tp707
Rp708
sba(iMap
Tiles
p709
(dp710
g3
g4
sg5
I01
sg6
g7
(I0
I224
I32
I32
tp711
Rp712
sba(iMap
Tiles
p713
(dp714
g3
g4
sg5
I01
sg6
g7
(I32
I224
I32
I32
tp715
Rp716
sba(iMap
Tiles
p717
(dp718
g3
g4
sg5
I01
sg6
g7
(I64
I224
I32
I32
tp719
Rp720
sba(iMap
Tiles
p721
(dp722
g3
g4
sg5
I01
sg6
g7
(I96
I224
I32
I32
tp723
Rp724
sba(iMap
Tiles
p725
(dp726
g3
g4
sg5
I01
sg6
g7
(I128
I224
I32
I32
tp727
Rp728
sba(iMap
Tiles
p729
(dp730
g3
g4
sg5
I01
sg6
g7
(I160
I224
I32
I32
tp731
Rp732
sba(iMap
Tiles
p733
(dp734
g3
g4
sg5
I01
sg6
g7
(I192
I224
I32
I32
tp735
Rp736
sba(iMap
Tiles
p737
(dp738
g3
g238
sg5
I00
sg6
g7
(I224
I224
I32
I32
tp739
Rp740
sba(iMap
Tiles
p741
(dp742
g3
g4
sg5
I01
sg6
g7
(I256
I224
I32
I32
tp743
Rp744
sba(iMap
Tiles
p745
(dp746
g3
g4
sg5
I01
sg6
g7
(I288
I224
I32
I32
tp747
Rp748
sba(iMap
Tiles
p749
(dp750
g3
g4
sg5
I01
sg6
g7
(I320
I224
I32
I32
tp751
Rp752
sba(iMap
Tiles
p753
(dp754
g3
g4
sg5
I01
sg6
g7
(I352
I224
I32
I32
tp755
Rp756
sba(iMap
Tiles
p757
(dp758
g3
g4
sg5
I01
sg6
g7
(I384
I224
I32
I32
tp759
Rp760
sba(iMap
Tiles
p761
(dp762
g3
g4
sg5
I01
sg6
g7
(I416
I224
I32
I32
tp763
Rp764
sba(iMap
Tiles
p765
(dp766
g3
g4
sg5
I01
sg6
g7
(I448
I224
I32
I32
tp767
Rp768
sba(iMap
Tiles
p769
(dp770
g3
g4
sg5
I01
sg6
g7
(I480
I224
I32
I32
tp771
Rp772
sba(iMap
Tiles
p773
(dp774
g3
g4
sg5
I01
sg6
g7
(I512
I224
I32
I32
tp775
Rp776
sba(iMap
Tiles
p777
(dp778
g3
g4
sg5
I01
sg6
g7
(I544
I224
I32
I32
tp779
Rp780
sba(iMap
Tiles
p781
(dp782
g3
g4
sg5
I01
sg6
g7
(I576
I224
I32
I32
tp783
Rp784
sba(iMap
Tiles
p785
(dp786
g3
g4
sg5
I01
sg6
g7
(I608
I224
I32
I32
tp787
Rp788
sba(iMap
Tiles
p789
(dp790
g3
g4
sg5
I01
sg6
g7
(I640
I224
I32
I32
tp791
Rp792
sba(iMap
Tiles
p793
(dp794
g3
g4
sg5
I01
sg6
g7
(I672
I224
I32
I32
tp795
Rp796
sba(iMap
Tiles
p797
(dp798
g3
g4
sg5
I01
sg6
g7
(I704
I224
I32
I32
tp799
Rp800
sba(iMap
Tiles
p801
(dp802
g3
g4
sg5
I01
sg6
g7
(I736
I224
I32
I32
tp803
Rp804
sba(iMap
Tiles
p805
(dp806
g3
g4
sg5
I01
sg6
g7
(I768
I224
I32
I32
tp807
Rp808
sba(iMap
Tiles
p809
(dp810
g3
g4
sg5
I01
sg6
g7
(I0
I256
I32
I32
tp811
Rp812
sba(iMap
Tiles
p813
(dp814
g3
g4
sg5
I01
sg6
g7
(I32
I256
I32
I32
tp815
Rp816
sba(iMap
Tiles
p817
(dp818
g3
g4
sg5
I01
sg6
g7
(I64
I256
I32
I32
tp819
Rp820
sba(iMap
Tiles
p821
(dp822
g3
g4
sg5
I01
sg6
g7
(I96
I256
I32
I32
tp823
Rp824
sba(iMap
Tiles
p825
(dp826
g3
g4
sg5
I01
sg6
g7
(I128
I256
I32
I32
tp827
Rp828
sba(iMap
Tiles
p829
(dp830
g3
g4
sg5
I01
sg6
g7
(I160
I256
I32
I32
tp831
Rp832
sba(iMap
Tiles
p833
(dp834
g3
g238
sg5
I00
sg6
g7
(I192
I256
I32
I32
tp835
Rp836
sba(iMap
Tiles
p837
(dp838
g3
g238
sg5
I00
sg6
g7
(I224
I256
I32
I32
tp839
Rp840
sba(iMap
Tiles
p841
(dp842
g3
g238
sg5
I00
sg6
g7
(I256
I256
I32
I32
tp843
Rp844
sba(iMap
Tiles
p845
(dp846
g3
g238
sg5
I00
sg6
g7
(I288
I256
I32
I32
tp847
Rp848
sba(iMap
Tiles
p849
(dp850
g3
g4
sg5
I01
sg6
g7
(I320
I256
I32
I32
tp851
Rp852
sba(iMap
Tiles
p853
(dp854
g3
g4
sg5
I01
sg6
g7
(I352
I256
I32
I32
tp855
Rp856
sba(iMap
Tiles
p857
(dp858
g3
g4
sg5
I01
sg6
g7
(I384
I256
I32
I32
tp859
Rp860
sba(iMap
Tiles
p861
(dp862
g3
g4
sg5
I01
sg6
g7
(I416
I256
I32
I32
tp863
Rp864
sba(iMap
Tiles
p865
(dp866
g3
g4
sg5
I01
sg6
g7
(I448
I256
I32
I32
tp867
Rp868
sba(iMap
Tiles
p869
(dp870
g3
g4
sg5
I01
sg6
g7
(I480
I256
I32
I32
tp871
Rp872
sba(iMap
Tiles
p873
(dp874
g3
g4
sg5
I01
sg6
g7
(I512
I256
I32
I32
tp875
Rp876
sba(iMap
Tiles
p877
(dp878
g3
g4
sg5
I01
sg6
g7
(I544
I256
I32
I32
tp879
Rp880
sba(iMap
Tiles
p881
(dp882
g3
g4
sg5
I01
sg6
g7
(I576
I256
I32
I32
tp883
Rp884
sba(iMap
Tiles
p885
(dp886
g3
g4
sg5
I01
sg6
g7
(I608
I256
I32
I32
tp887
Rp888
sba(iMap
Tiles
p889
(dp890
g3
g4
sg5
I01
sg6
g7
(I640
I256
I32
I32
tp891
Rp892
sba(iMap
Tiles
p893
(dp894
g3
g4
sg5
I01
sg6
g7
(I672
I256
I32
I32
tp895
Rp896
sba(iMap
Tiles
p897
(dp898
g3
g4
sg5
I01
sg6
g7
(I704
I256
I32
I32
tp899
Rp900
sba(iMap
Tiles
p901
(dp902
g3
g4
sg5
I01
sg6
g7
(I736
I256
I32
I32
tp903
Rp904
sba(iMap
Tiles
p905
(dp906
g3
g4
sg5
I01
sg6
g7
(I768
I256
I32
I32
tp907
Rp908
sba(iMap
Tiles
p909
(dp910
g3
g4
sg5
I01
sg6
g7
(I0
I288
I32
I32
tp911
Rp912
sba(iMap
Tiles
p913
(dp914
g3
g4
sg5
I01
sg6
g7
(I32
I288
I32
I32
tp915
Rp916
sba(iMap
Tiles
p917
(dp918
g3
g4
sg5
I01
sg6
g7
(I64
I288
I32
I32
tp919
Rp920
sba(iMap
Tiles
p921
(dp922
g3
g4
sg5
I01
sg6
g7
(I96
I288
I32
I32
tp923
Rp924
sba(iMap
Tiles
p925
(dp926
g3
g4
sg5
I01
sg6
g7
(I128
I288
I32
I32
tp927
Rp928
sba(iMap
Tiles
p929
(dp930
g3
g4
sg5
I01
sg6
g7
(I160
I288
I32
I32
tp931
Rp932
sba(iMap
Tiles
p933
(dp934
g3
g238
sg5
I00
sg6
g7
(I192
I288
I32
I32
tp935
Rp936
sba(iMap
Tiles
p937
(dp938
g3
g238
sg5
I00
sg6
g7
(I224
I288
I32
I32
tp939
Rp940
sba(iMap
Tiles
p941
(dp942
g3
g238
sg5
I00
sg6
g7
(I256
I288
I32
I32
tp943
Rp944
sba(iMap
Tiles
p945
(dp946
g3
g238
sg5
I00
sg6
g7
(I288
I288
I32
I32
tp947
Rp948
sba(iMap
Tiles
p949
(dp950
g3
g4
sg5
I01
sg6
g7
(I320
I288
I32
I32
tp951
Rp952
sba(iMap
Tiles
p953
(dp954
g3
g4
sg5
I01
sg6
g7
(I352
I288
I32
I32
tp955
Rp956
sba(iMap
Tiles
p957
(dp958
g3
g4
sg5
I01
sg6
g7
(I384
I288
I32
I32
tp959
Rp960
sba(iMap
Tiles
p961
(dp962
g3
g4
sg5
I01
sg6
g7
(I416
I288
I32
I32
tp963
Rp964
sba(iMap
Tiles
p965
(dp966
g3
g4
sg5
I01
sg6
g7
(I448
I288
I32
I32
tp967
Rp968
sba(iMap
Tiles
p969
(dp970
g3
g4
sg5
I01
sg6
g7
(I480
I288
I32
I32
tp971
Rp972
sba(iMap
Tiles
p973
(dp974
g3
g4
sg5
I01
sg6
g7
(I512
I288
I32
I32
tp975
Rp976
sba(iMap
Tiles
p977
(dp978
g3
g4
sg5
I01
sg6
g7
(I544
I288
I32
I32
tp979
Rp980
sba(iMap
Tiles
p981
(dp982
g3
g4
sg5
I01
sg6
g7
(I576
I288
I32
I32
tp983
Rp984
sba(iMap
Tiles
p985
(dp986
g3
g4
sg5
I01
sg6
g7
(I608
I288
I32
I32
tp987
Rp988
sba(iMap
Tiles
p989
(dp990
g3
g4
sg5
I01
sg6
g7
(I640
I288
I32
I32
tp991
Rp992
sba(iMap
Tiles
p993
(dp994
g3
g4
sg5
I01
sg6
g7
(I672
I288
I32
I32
tp995
Rp996
sba(iMap
Tiles
p997
(dp998
g3
g4
sg5
I01
sg6
g7
(I704
I288
I32
I32
tp999
Rp1000
sba(iMap
Tiles
p1001
(dp1002
g3
g4
sg5
I01
sg6
g7
(I736
I288
I32
I32
tp1003
Rp1004
sba(iMap
Tiles
p1005
(dp1006
g3
g4
sg5
I01
sg6
g7
(I768
I288
I32
I32
tp1007
Rp1008
sba(iMap
Tiles
p1009
(dp1010
g3
g4
sg5
I01
sg6
g7
(I0
I320
I32
I32
tp1011
Rp1012
sba(iMap
Tiles
p1013
(dp1014
g3
g4
sg5
I01
sg6
g7
(I32
I320
I32
I32
tp1015
Rp1016
sba(iMap
Tiles
p1017
(dp1018
g3
g4
sg5
I01
sg6
g7
(I64
I320
I32
I32
tp1019
Rp1020
sba(iMap
Tiles
p1021
(dp1022
g3
g4
sg5
I01
sg6
g7
(I96
I320
I32
I32
tp1023
Rp1024
sba(iMap
Tiles
p1025
(dp1026
g3
g4
sg5
I01
sg6
g7
(I128
I320
I32
I32
tp1027
Rp1028
sba(iMap
Tiles
p1029
(dp1030
g3
g4
sg5
I01
sg6
g7
(I160
I320
I32
I32
tp1031
Rp1032
sba(iMap
Tiles
p1033
(dp1034
g3
g4
sg5
I01
sg6
g7
(I192
I320
I32
I32
tp1035
Rp1036
sba(iMap
Tiles
p1037
(dp1038
g3
g4
sg5
I01
sg6
g7
(I224
I320
I32
I32
tp1039
Rp1040
sba(iMap
Tiles
p1041
(dp1042
g3
g4
sg5
I01
sg6
g7
(I256
I320
I32
I32
tp1043
Rp1044
sba(iMap
Tiles
p1045
(dp1046
g3
g4
sg5
I01
sg6
g7
(I288
I320
I32
I32
tp1047
Rp1048
sba(iMap
Tiles
p1049
(dp1050
g3
g4
sg5
I01
sg6
g7
(I320
I320
I32
I32
tp1051
Rp1052
sba(iMap
Tiles
p1053
(dp1054
g3
g4
sg5
I01
sg6
g7
(I352
I320
I32
I32
tp1055
Rp1056
sba(iMap
Tiles
p1057
(dp1058
g3
g4
sg5
I01
sg6
g7
(I384
I320
I32
I32
tp1059
Rp1060
sba(iMap
Tiles
p1061
(dp1062
g3
g4
sg5
I01
sg6
g7
(I416
I320
I32
I32
tp1063
Rp1064
sba(iMap
Tiles
p1065
(dp1066
g3
g4
sg5
I01
sg6
g7
(I448
I320
I32
I32
tp1067
Rp1068
sba(iMap
Tiles
p1069
(dp1070
g3
g4
sg5
I01
sg6
g7
(I480
I320
I32
I32
tp1071
Rp1072
sba(iMap
Tiles
p1073
(dp1074
g3
g4
sg5
I01
sg6
g7
(I512
I320
I32
I32
tp1075
Rp1076
sba(iMap
Tiles
p1077
(dp1078
g3
g4
sg5
I01
sg6
g7
(I544
I320
I32
I32
tp1079
Rp1080
sba(iMap
Tiles
p1081
(dp1082
g3
g4
sg5
I01
sg6
g7
(I576
I320
I32
I32
tp1083
Rp1084
sba(iMap
Tiles
p1085
(dp1086
g3
g4
sg5
I01
sg6
g7
(I608
I320
I32
I32
tp1087
Rp1088
sba(iMap
Tiles
p1089
(dp1090
g3
g4
sg5
I01
sg6
g7
(I640
I320
I32
I32
tp1091
Rp1092
sba(iMap
Tiles
p1093
(dp1094
g3
g4
sg5
I01
sg6
g7
(I672
I320
I32
I32
tp1095
Rp1096
sba(iMap
Tiles
p1097
(dp1098
g3
g4
sg5
I01
sg6
g7
(I704
I320
I32
I32
tp1099
Rp1100
sba(iMap
Tiles
p1101
(dp1102
g3
g4
sg5
I01
sg6
g7
(I736
I320
I32
I32
tp1103
Rp1104
sba(iMap
Tiles
p1105
(dp1106
g3
g4
sg5
I01
sg6
g7
(I768
I320
I32
I32
tp1107
Rp1108
sba(iMap
Tiles
p1109
(dp1110
g3
g4
sg5
I01
sg6
g7
(I0
I352
I32
I32
tp1111
Rp1112
sba(iMap
Tiles
p1113
(dp1114
g3
g4
sg5
I01
sg6
g7
(I32
I352
I32
I32
tp1115
Rp1116
sba(iMap
Tiles
p1117
(dp1118
g3
g4
sg5
I01
sg6
g7
(I64
I352
I32
I32
tp1119
Rp1120
sba(iMap
Tiles
p1121
(dp1122
g3
g4
sg5
I01
sg6
g7
(I96
I352
I32
I32
tp1123
Rp1124
sba(iMap
Tiles
p1125
(dp1126
g3
g4
sg5
I01
sg6
g7
(I128
I352
I32
I32
tp1127
Rp1128
sba(iMap
Tiles
p1129
(dp1130
g3
g4
sg5
I01
sg6
g7
(I160
I352
I32
I32
tp1131
Rp1132
sba(iMap
Tiles
p1133
(dp1134
g3
g4
sg5
I01
sg6
g7
(I192
I352
I32
I32
tp1135
Rp1136
sba(iMap
Tiles
p1137
(dp1138
g3
g4
sg5
I01
sg6
g7
(I224
I352
I32
I32
tp1139
Rp1140
sba(iMap
Tiles
p1141
(dp1142
g3
g4
sg5
I01
sg6
g7
(I256
I352
I32
I32
tp1143
Rp1144
sba(iMap
Tiles
p1145
(dp1146
g3
g4
sg5
I01
sg6
g7
(I288
I352
I32
I32
tp1147
Rp1148
sba(iMap
Tiles
p1149
(dp1150
g3
g4
sg5
I01
sg6
g7
(I320
I352
I32
I32
tp1151
Rp1152
sba(iMap
Tiles
p1153
(dp1154
g3
g4
sg5
I01
sg6
g7
(I352
I352
I32
I32
tp1155
Rp1156
sba(iMap
Tiles
p1157
(dp1158
g3
g4
sg5
I01
sg6
g7
(I384
I352
I32
I32
tp1159
Rp1160
sba(iMap
Tiles
p1161
(dp1162
g3
g4
sg5
I01
sg6
g7
(I416
I352
I32
I32
tp1163
Rp1164
sba(iMap
Tiles
p1165
(dp1166
g3
g4
sg5
I01
sg6
g7
(I448
I352
I32
I32
tp1167
Rp1168
sba(iMap
Tiles
p1169
(dp1170
g3
g4
sg5
I01
sg6
g7
(I480
I352
I32
I32
tp1171
Rp1172
sba(iMap
Tiles
p1173
(dp1174
g3
g4
sg5
I01
sg6
g7
(I512
I352
I32
I32
tp1175
Rp1176
sba(iMap
Tiles
p1177
(dp1178
g3
g4
sg5
I01
sg6
g7
(I544
I352
I32
I32
tp1179
Rp1180
sba(iMap
Tiles
p1181
(dp1182
g3
g4
sg5
I01
sg6
g7
(I576
I352
I32
I32
tp1183
Rp1184
sba(iMap
Tiles
p1185
(dp1186
g3
g4
sg5
I01
sg6
g7
(I608
I352
I32
I32
tp1187
Rp1188
sba(iMap
Tiles
p1189
(dp1190
g3
g4
sg5
I01
sg6
g7
(I640
I352
I32
I32
tp1191
Rp1192
sba(iMap
Tiles
p1193
(dp1194
g3
g4
sg5
I01
sg6
g7
(I672
I352
I32
I32
tp1195
Rp1196
sba(iMap
Tiles
p1197
(dp1198
g3
g4
sg5
I01
sg6
g7
(I704
I352
I32
I32
tp1199
Rp1200
sba(iMap
Tiles
p1201
(dp1202
g3
g4
sg5
I01
sg6
g7
(I736
I352
I32
I32
tp1203
Rp1204
sba(iMap
Tiles
p1205
(dp1206
g3
g4
sg5
I01
sg6
g7
(I768
I352
I32
I32
tp1207
Rp1208
sba(iMap
Tiles
p1209
(dp1210
g3
g4
sg5
I01
sg6
g7
(I0
I384
I32
I32
tp1211
Rp1212
sba(iMap
Tiles
p1213
(dp1214
g3
g4
sg5
I01
sg6
g7
(I32
I384
I32
I32
tp1215
Rp1216
sba(iMap
Tiles
p1217
(dp1218
g3
g4
sg5
I01
sg6
g7
(I64
I384
I32
I32
tp1219
Rp1220
sba(iMap
Tiles
p1221
(dp1222
g3
g4
sg5
I01
sg6
g7
(I96
I384
I32
I32
tp1223
Rp1224
sba(iMap
Tiles
p1225
(dp1226
g3
g4
sg5
I01
sg6
g7
(I128
I384
I32
I32
tp1227
Rp1228
sba(iMap
Tiles
p1229
(dp1230
g3
g4
sg5
I01
sg6
g7
(I160
I384
I32
I32
tp1231
Rp1232
sba(iMap
Tiles
p1233
(dp1234
g3
g4
sg5
I01
sg6
g7
(I192
I384
I32
I32
tp1235
Rp1236
sba(iMap
Tiles
p1237
(dp1238
g3
g4
sg5
I01
sg6
g7
(I224
I384
I32
I32
tp1239
Rp1240
sba(iMap
Tiles
p1241
(dp1242
g3
g4
sg5
I01
sg6
g7
(I256
I384
I32
I32
tp1243
Rp1244
sba(iMap
Tiles
p1245
(dp1246
g3
g4
sg5
I01
sg6
g7
(I288
I384
I32
I32
tp1247
Rp1248
sba(iMap
Tiles
p1249
(dp1250
g3
g4
sg5
I01
sg6
g7
(I320
I384
I32
I32
tp1251
Rp1252
sba(iMap
Tiles
p1253
(dp1254
g3
g4
sg5
I01
sg6
g7
(I352
I384
I32
I32
tp1255
Rp1256
sba(iMap
Tiles
p1257
(dp1258
g3
g4
sg5
I01
sg6
g7
(I384
I384
I32
I32
tp1259
Rp1260
sba(iMap
Tiles
p1261
(dp1262
g3
g4
sg5
I01
sg6
g7
(I416
I384
I32
I32
tp1263
Rp1264
sba(iMap
Tiles
p1265
(dp1266
g3
g4
sg5
I01
sg6
g7
(I448
I384
I32
I32
tp1267
Rp1268
sba(iMap
Tiles
p1269
(dp1270
g3
g4
sg5
I01
sg6
g7
(I480
I384
I32
I32
tp1271
Rp1272
sba(iMap
Tiles
p1273
(dp1274
g3
g4
sg5
I01
sg6
g7
(I512
I384
I32
I32
tp1275
Rp1276
sba(iMap
Tiles
p1277
(dp1278
g3
g4
sg5
I01
sg6
g7
(I544
I384
I32
I32
tp1279
Rp1280
sba(iMap
Tiles
p1281
(dp1282
g3
g4
sg5
I01
sg6
g7
(I576
I384
I32
I32
tp1283
Rp1284
sba(iMap
Tiles
p1285
(dp1286
g3
g4
sg5
I01
sg6
g7
(I608
I384
I32
I32
tp1287
Rp1288
sba(iMap
Tiles
p1289
(dp1290
g3
g4
sg5
I01
sg6
g7
(I640
I384
I32
I32
tp1291
Rp1292
sba(iMap
Tiles
p1293
(dp1294
g3
g4
sg5
I01
sg6
g7
(I672
I384
I32
I32
tp1295
Rp1296
sba(iMap
Tiles
p1297
(dp1298
g3
g4
sg5
I01
sg6
g7
(I704
I384
I32
I32
tp1299
Rp1300
sba(iMap
Tiles
p1301
(dp1302
g3
g4
sg5
I01
sg6
g7
(I736
I384
I32
I32
tp1303
Rp1304
sba(iMap
Tiles
p1305
(dp1306
g3
g4
sg5
I01
sg6
g7
(I768
I384
I32
I32
tp1307
Rp1308
sba(iMap
Tiles
p1309
(dp1310
g3
g4
sg5
I01
sg6
g7
(I0
I416
I32
I32
tp1311
Rp1312
sba(iMap
Tiles
p1313
(dp1314
g3
g4
sg5
I01
sg6
g7
(I32
I416
I32
I32
tp1315
Rp1316
sba(iMap
Tiles
p1317
(dp1318
g3
g4
sg5
I01
sg6
g7
(I64
I416
I32
I32
tp1319
Rp1320
sba(iMap
Tiles
p1321
(dp1322
g3
g4
sg5
I01
sg6
g7
(I96
I416
I32
I32
tp1323
Rp1324
sba(iMap
Tiles
p1325
(dp1326
g3
g4
sg5
I01
sg6
g7
(I128
I416
I32
I32
tp1327
Rp1328
sba(iMap
Tiles
p1329
(dp1330
g3
g4
sg5
I01
sg6
g7
(I160
I416
I32
I32
tp1331
Rp1332
sba(iMap
Tiles
p1333
(dp1334
g3
g4
sg5
I01
sg6
g7
(I192
I416
I32
I32
tp1335
Rp1336
sba(iMap
Tiles
p1337
(dp1338
g3
g4
sg5
I01
sg6
g7
(I224
I416
I32
I32
tp1339
Rp1340
sba(iMap
Tiles
p1341
(dp1342
g3
g4
sg5
I01
sg6
g7
(I256
I416
I32
I32
tp1343
Rp1344
sba(iMap
Tiles
p1345
(dp1346
g3
g4
sg5
I01
sg6
g7
(I288
I416
I32
I32
tp1347
Rp1348
sba(iMap
Tiles
p1349
(dp1350
g3
g4
sg5
I01
sg6
g7
(I320
I416
I32
I32
tp1351
Rp1352
sba(iMap
Tiles
p1353
(dp1354
g3
g4
sg5
I01
sg6
g7
(I352
I416
I32
I32
tp1355
Rp1356
sba(iMap
Tiles
p1357
(dp1358
g3
g4
sg5
I01
sg6
g7
(I384
I416
I32
I32
tp1359
Rp1360
sba(iMap
Tiles
p1361
(dp1362
g3
g4
sg5
I01
sg6
g7
(I416
I416
I32
I32
tp1363
Rp1364
sba(iMap
Tiles
p1365
(dp1366
g3
g4
sg5
I01
sg6
g7
(I448
I416
I32
I32
tp1367
Rp1368
sba(iMap
Tiles
p1369
(dp1370
g3
g4
sg5
I01
sg6
g7
(I480
I416
I32
I32
tp1371
Rp1372
sba(iMap
Tiles
p1373
(dp1374
g3
g4
sg5
I01
sg6
g7
(I512
I416
I32
I32
tp1375
Rp1376
sba(iMap
Tiles
p1377
(dp1378
g3
g4
sg5
I01
sg6
g7
(I544
I416
I32
I32
tp1379
Rp1380
sba(iMap
Tiles
p1381
(dp1382
g3
g4
sg5
I01
sg6
g7
(I576
I416
I32
I32
tp1383
Rp1384
sba(iMap
Tiles
p1385
(dp1386
g3
g4
sg5
I01
sg6
g7
(I608
I416
I32
I32
tp1387
Rp1388
sba(iMap
Tiles
p1389
(dp1390
g3
g4
sg5
I01
sg6
g7
(I640
I416
I32
I32
tp1391
Rp1392
sba(iMap
Tiles
p1393
(dp1394
g3
g4
sg5
I01
sg6
g7
(I672
I416
I32
I32
tp1395
Rp1396
sba(iMap
Tiles
p1397
(dp1398
g3
g4
sg5
I01
sg6
g7
(I704
I416
I32
I32
tp1399
Rp1400
sba(iMap
Tiles
p1401
(dp1402
g3
g4
sg5
I01
sg6
g7
(I736
I416
I32
I32
tp1403
Rp1404
sba(iMap
Tiles
p1405
(dp1406
g3
g4
sg5
I01
sg6
g7
(I768
I416
I32
I32
tp1407
Rp1408
sba(iMap
Tiles
p1409
(dp1410
g3
g4
sg5
I01
sg6
g7
(I0
I448
I32
I32
tp1411
Rp1412
sba(iMap
Tiles
p1413
(dp1414
g3
g4
sg5
I01
sg6
g7
(I32
I448
I32
I32
tp1415
Rp1416
sba(iMap
Tiles
p1417
(dp1418
g3
g4
sg5
I01
sg6
g7
(I64
I448
I32
I32
tp1419
Rp1420
sba(iMap
Tiles
p1421
(dp1422
g3
g4
sg5
I01
sg6
g7
(I96
I448
I32
I32
tp1423
Rp1424
sba(iMap
Tiles
p1425
(dp1426
g3
g4
sg5
I01
sg6
g7
(I128
I448
I32
I32
tp1427
Rp1428
sba(iMap
Tiles
p1429
(dp1430
g3
g4
sg5
I01
sg6
g7
(I160
I448
I32
I32
tp1431
Rp1432
sba(iMap
Tiles
p1433
(dp1434
g3
g4
sg5
I01
sg6
g7
(I192
I448
I32
I32
tp1435
Rp1436
sba(iMap
Tiles
p1437
(dp1438
g3
g4
sg5
I01
sg6
g7
(I224
I448
I32
I32
tp1439
Rp1440
sba(iMap
Tiles
p1441
(dp1442
g3
g4
sg5
I01
sg6
g7
(I256
I448
I32
I32
tp1443
Rp1444
sba(iMap
Tiles
p1445
(dp1446
g3
g4
sg5
I01
sg6
g7
(I288
I448
I32
I32
tp1447
Rp1448
sba(iMap
Tiles
p1449
(dp1450
g3
g4
sg5
I01
sg6
g7
(I320
I448
I32
I32
tp1451
Rp1452
sba(iMap
Tiles
p1453
(dp1454
g3
g4
sg5
I01
sg6
g7
(I352
I448
I32
I32
tp1455
Rp1456
sba(iMap
Tiles
p1457
(dp1458
g3
g4
sg5
I01
sg6
g7
(I384
I448
I32
I32
tp1459
Rp1460
sba(iMap
Tiles
p1461
(dp1462
g3
g4
sg5
I01
sg6
g7
(I416
I448
I32
I32
tp1463
Rp1464
sba(iMap
Tiles
p1465
(dp1466
g3
g4
sg5
I01
sg6
g7
(I448
I448
I32
I32
tp1467
Rp1468
sba(iMap
Tiles
p1469
(dp1470
g3
g4
sg5
I01
sg6
g7
(I480
I448
I32
I32
tp1471
Rp1472
sba(iMap
Tiles
p1473
(dp1474
g3
g4
sg5
I01
sg6
g7
(I512
I448
I32
I32
tp1475
Rp1476
sba(iMap
Tiles
p1477
(dp1478
g3
g4
sg5
I01
sg6
g7
(I544
I448
I32
I32
tp1479
Rp1480
sba(iMap
Tiles
p1481
(dp1482
g3
g4
sg5
I01
sg6
g7
(I576
I448
I32
I32
tp1483
Rp1484
sba(iMap
Tiles
p1485
(dp1486
g3
g4
sg5
I01
sg6
g7
(I608
I448
I32
I32
tp1487
Rp1488
sba(iMap
Tiles
p1489
(dp1490
g3
g4
sg5
I01
sg6
g7
(I640
I448
I32
I32
tp1491
Rp1492
sba(iMap
Tiles
p1493
(dp1494
g3
g4
sg5
I01
sg6
g7
(I672
I448
I32
I32
tp1495
Rp1496
sba(iMap
Tiles
p1497
(dp1498
g3
g4
sg5
I01
sg6
g7
(I704
I448
I32
I32
tp1499
Rp1500
sba(iMap
Tiles
p1501
(dp1502
g3
g4
sg5
I01
sg6
g7
(I736
I448
I32
I32
tp1503
Rp1504
sba(iMap
Tiles
p1505
(dp1506
g3
g4
sg5
I01
sg6
g7
(I768
I448
I32
I32
tp1507
Rp1508
sba(iMap
Tiles
p1509
(dp1510
g3
g4
sg5
I01
sg6
g7
(I0
I480
I32
I32
tp1511
Rp1512
sba(iMap
Tiles
p1513
(dp1514
g3
g4
sg5
I01
sg6
g7
(I32
I480
I32
I32
tp1515
Rp1516
sba(iMap
Tiles
p1517
(dp1518
g3
g4
sg5
I01
sg6
g7
(I64
I480
I32
I32
tp1519
Rp1520
sba(iMap
Tiles
p1521
(dp1522
g3
g4
sg5
I01
sg6
g7
(I96
I480
I32
I32
tp1523
Rp1524
sba(iMap
Tiles
p1525
(dp1526
g3
g4
sg5
I01
sg6
g7
(I128
I480
I32
I32
tp1527
Rp1528
sba(iMap
Tiles
p1529
(dp1530
g3
g4
sg5
I01
sg6
g7
(I160
I480
I32
I32
tp1531
Rp1532
sba(iMap
Tiles
p1533
(dp1534
g3
g4
sg5
I01
sg6
g7
(I192
I480
I32
I32
tp1535
Rp1536
sba(iMap
Tiles
p1537
(dp1538
g3
g4
sg5
I01
sg6
g7
(I224
I480
I32
I32
tp1539
Rp1540
sba(iMap
Tiles
p1541
(dp1542
g3
g4
sg5
I01
sg6
g7
(I256
I480
I32
I32
tp1543
Rp1544
sba(iMap
Tiles
p1545
(dp1546
g3
g4
sg5
I01
sg6
g7
(I288
I480
I32
I32
tp1547
Rp1548
sba(iMap
Tiles
p1549
(dp1550
g3
g4
sg5
I01
sg6
g7
(I320
I480
I32
I32
tp1551
Rp1552
sba(iMap
Tiles
p1553
(dp1554
g3
g4
sg5
I01
sg6
g7
(I352
I480
I32
I32
tp1555
Rp1556
sba(iMap
Tiles
p1557
(dp1558
g3
g4
sg5
I01
sg6
g7
(I384
I480
I32
I32
tp1559
Rp1560
sba(iMap
Tiles
p1561
(dp1562
g3
g4
sg5
I01
sg6
g7
(I416
I480
I32
I32
tp1563
Rp1564
sba(iMap
Tiles
p1565
(dp1566
g3
g4
sg5
I01
sg6
g7
(I448
I480
I32
I32
tp1567
Rp1568
sba(iMap
Tiles
p1569
(dp1570
g3
g4
sg5
I01
sg6
g7
(I480
I480
I32
I32
tp1571
Rp1572
sba(iMap
Tiles
p1573
(dp1574
g3
g4
sg5
I01
sg6
g7
(I512
I480
I32
I32
tp1575
Rp1576
sba(iMap
Tiles
p1577
(dp1578
g3
g4
sg5
I01
sg6
g7
(I544
I480
I32
I32
tp1579
Rp1580
sba(iMap
Tiles
p1581
(dp1582
g3
g4
sg5
I01
sg6
g7
(I576
I480
I32
I32
tp1583
Rp1584
sba(iMap
Tiles
p1585
(dp1586
g3
g4
sg5
I01
sg6
g7
(I608
I480
I32
I32
tp1587
Rp1588
sba(iMap
Tiles
p1589
(dp1590
g3
g4
sg5
I01
sg6
g7
(I640
I480
I32
I32
tp1591
Rp1592
sba(iMap
Tiles
p1593
(dp1594
g3
g4
sg5
I01
sg6
g7
(I672
I480
I32
I32
tp1595
Rp1596
sba(iMap
Tiles
p1597
(dp1598
g3
g4
sg5
I01
sg6
g7
(I704
I480
I32
I32
tp1599
Rp1600
sba(iMap
Tiles
p1601
(dp1602
g3
g4
sg5
I01
sg6
g7
(I736
I480
I32
I32
tp1603
Rp1604
sba(iMap
Tiles
p1605
(dp1606
g3
g4
sg5
I01
sg6
g7
(I768
I480
I32
I32
tp1607
Rp1608
sba(iMap
Tiles
p1609
(dp1610
g3
g4
sg5
I01
sg6
g7
(I0
I512
I32
I32
tp1611
Rp1612
sba(iMap
Tiles
p1613
(dp1614
g3
g4
sg5
I01
sg6
g7
(I32
I512
I32
I32
tp1615
Rp1616
sba(iMap
Tiles
p1617
(dp1618
g3
g4
sg5
I01
sg6
g7
(I64
I512
I32
I32
tp1619
Rp1620
sba(iMap
Tiles
p1621
(dp1622
g3
g4
sg5
I01
sg6
g7
(I96
I512
I32
I32
tp1623
Rp1624
sba(iMap
Tiles
p1625
(dp1626
g3
g4
sg5
I01
sg6
g7
(I128
I512
I32
I32
tp1627
Rp1628
sba(iMap
Tiles
p1629
(dp1630
g3
g4
sg5
I01
sg6
g7
(I160
I512
I32
I32
tp1631
Rp1632
sba(iMap
Tiles
p1633
(dp1634
g3
g4
sg5
I01
sg6
g7
(I192
I512
I32
I32
tp1635
Rp1636
sba(iMap
Tiles
p1637
(dp1638
g3
g4
sg5
I01
sg6
g7
(I224
I512
I32
I32
tp1639
Rp1640
sba(iMap
Tiles
p1641
(dp1642
g3
g4
sg5
I01
sg6
g7
(I256
I512
I32
I32
tp1643
Rp1644
sba(iMap
Tiles
p1645
(dp1646
g3
g4
sg5
I01
sg6
g7
(I288
I512
I32
I32
tp1647
Rp1648
sba(iMap
Tiles
p1649
(dp1650
g3
g4
sg5
I01
sg6
g7
(I320
I512
I32
I32
tp1651
Rp1652
sba(iMap
Tiles
p1653
(dp1654
g3
g4
sg5
I01
sg6
g7
(I352
I512
I32
I32
tp1655
Rp1656
sba(iMap
Tiles
p1657
(dp1658
g3
g4
sg5
I01
sg6
g7
(I384
I512
I32
I32
tp1659
Rp1660
sba(iMap
Tiles
p1661
(dp1662
g3
g4
sg5
I01
sg6
g7
(I416
I512
I32
I32
tp1663
Rp1664
sba(iMap
Tiles
p1665
(dp1666
g3
g4
sg5
I01
sg6
g7
(I448
I512
I32
I32
tp1667
Rp1668
sba(iMap
Tiles
p1669
(dp1670
g3
g4
sg5
I01
sg6
g7
(I480
I512
I32
I32
tp1671
Rp1672
sba(iMap
Tiles
p1673
(dp1674
g3
g4
sg5
I01
sg6
g7
(I512
I512
I32
I32
tp1675
Rp1676
sba(iMap
Tiles
p1677
(dp1678
g3
g4
sg5
I01
sg6
g7
(I544
I512
I32
I32
tp1679
Rp1680
sba(iMap
Tiles
p1681
(dp1682
g3
g4
sg5
I01
sg6
g7
(I576
I512
I32
I32
tp1683
Rp1684
sba(iMap
Tiles
p1685
(dp1686
g3
g4
sg5
I01
sg6
g7
(I608
I512
I32
I32
tp1687
Rp1688
sba(iMap
Tiles
p1689
(dp1690
g3
g4
sg5
I01
sg6
g7
(I640
I512
I32
I32
tp1691
Rp1692
sba(iMap
Tiles
p1693
(dp1694
g3
g4
sg5
I01
sg6
g7
(I672
I512
I32
I32
tp1695
Rp1696
sba(iMap
Tiles
p1697
(dp1698
g3
g4
sg5
I01
sg6
g7
(I704
I512
I32
I32
tp1699
Rp1700
sba(iMap
Tiles
p1701
(dp1702
g3
g4
sg5
I01
sg6
g7
(I736
I512
I32
I32
tp1703
Rp1704
sba(iMap
Tiles
p1705
(dp1706
g3
g4
sg5
I01
sg6
g7
(I768
I512
I32
I32
tp1707
Rp1708
sba(iMap
Tiles
p1709
(dp1710
g3
g4
sg5
I01
sg6
g7
(I0
I544
I32
I32
tp1711
Rp1712
sba(iMap
Tiles
p1713
(dp1714
g3
g4
sg5
I01
sg6
g7
(I32
I544
I32
I32
tp1715
Rp1716
sba(iMap
Tiles
p1717
(dp1718
g3
g4
sg5
I01
sg6
g7
(I64
I544
I32
I32
tp1719
Rp1720
sba(iMap
Tiles
p1721
(dp1722
g3
g4
sg5
I01
sg6
g7
(I96
I544
I32
I32
tp1723
Rp1724
sba(iMap
Tiles
p1725
(dp1726
g3
g4
sg5
I01
sg6
g7
(I128
I544
I32
I32
tp1727
Rp1728
sba(iMap
Tiles
p1729
(dp1730
g3
g4
sg5
I01
sg6
g7
(I160
I544
I32
I32
tp1731
Rp1732
sba(iMap
Tiles
p1733
(dp1734
g3
g4
sg5
I01
sg6
g7
(I192
I544
I32
I32
tp1735
Rp1736
sba(iMap
Tiles
p1737
(dp1738
g3
g4
sg5
I01
sg6
g7
(I224
I544
I32
I32
tp1739
Rp1740
sba(iMap
Tiles
p1741
(dp1742
g3
g4
sg5
I01
sg6
g7
(I256
I544
I32
I32
tp1743
Rp1744
sba(iMap
Tiles
p1745
(dp1746
g3
g4
sg5
I01
sg6
g7
(I288
I544
I32
I32
tp1747
Rp1748
sba(iMap
Tiles
p1749
(dp1750
g3
g4
sg5
I01
sg6
g7
(I320
I544
I32
I32
tp1751
Rp1752
sba(iMap
Tiles
p1753
(dp1754
g3
g4
sg5
I01
sg6
g7
(I352
I544
I32
I32
tp1755
Rp1756
sba(iMap
Tiles
p1757
(dp1758
g3
g4
sg5
I01
sg6
g7
(I384
I544
I32
I32
tp1759
Rp1760
sba(iMap
Tiles
p1761
(dp1762
g3
g4
sg5
I01
sg6
g7
(I416
I544
I32
I32
tp1763
Rp1764
sba(iMap
Tiles
p1765
(dp1766
g3
g4
sg5
I01
sg6
g7
(I448
I544
I32
I32
tp1767
Rp1768
sba(iMap
Tiles
p1769
(dp1770
g3
g4
sg5
I01
sg6
g7
(I480
I544
I32
I32
tp1771
Rp1772
sba(iMap
Tiles
p1773
(dp1774
g3
g4
sg5
I01
sg6
g7
(I512
I544
I32
I32
tp1775
Rp1776
sba(iMap
Tiles
p1777
(dp1778
g3
g4
sg5
I01
sg6
g7
(I544
I544
I32
I32
tp1779
Rp1780
sba(iMap
Tiles
p1781
(dp1782
g3
g4
sg5
I01
sg6
g7
(I576
I544
I32
I32
tp1783
Rp1784
sba(iMap
Tiles
p1785
(dp1786
g3
g4
sg5
I01
sg6
g7
(I608
I544
I32
I32
tp1787
Rp1788
sba(iMap
Tiles
p1789
(dp1790
g3
g4
sg5
I01
sg6
g7
(I640
I544
I32
I32
tp1791
Rp1792
sba(iMap
Tiles
p1793
(dp1794
g3
g4
sg5
I01
sg6
g7
(I672
I544
I32
I32
tp1795
Rp1796
sba(iMap
Tiles
p1797
(dp1798
g3
g4
sg5
I01
sg6
g7
(I704
I544
I32
I32
tp1799
Rp1800
sba(iMap
Tiles
p1801
(dp1802
g3
g4
sg5
I01
sg6
g7
(I736
I544
I32
I32
tp1803
Rp1804
sba(iMap
Tiles
p1805
(dp1806
g3
g4
sg5
I01
sg6
g7
(I768
I544
I32
I32
tp1807
Rp1808
sba(iMap
Tiles
p1809
(dp1810
g3
g4
sg5
I01
sg6
g7
(I0
I576
I32
I32
tp1811
Rp1812
sba(iMap
Tiles
p1813
(dp1814
g3
g4
sg5
I01
sg6
g7
(I32
I576
I32
I32
tp1815
Rp1816
sba(iMap
Tiles
p1817
(dp1818
g3
g4
sg5
I01
sg6
g7
(I64
I576
I32
I32
tp1819
Rp1820
sba(iMap
Tiles
p1821
(dp1822
g3
g4
sg5
I01
sg6
g7
(I96
I576
I32
I32
tp1823
Rp1824
sba(iMap
Tiles
p1825
(dp1826
g3
g4
sg5
I01
sg6
g7
(I128
I576
I32
I32
tp1827
Rp1828
sba(iMap
Tiles
p1829
(dp1830
g3
g4
sg5
I01
sg6
g7
(I160
I576
I32
I32
tp1831
Rp1832
sba(iMap
Tiles
p1833
(dp1834
g3
g4
sg5
I01
sg6
g7
(I192
I576
I32
I32
tp1835
Rp1836
sba(iMap
Tiles
p1837
(dp1838
g3
g4
sg5
I01
sg6
g7
(I224
I576
I32
I32
tp1839
Rp1840
sba(iMap
Tiles
p1841
(dp1842
g3
g4
sg5
I01
sg6
g7
(I256
I576
I32
I32
tp1843
Rp1844
sba(iMap
Tiles
p1845
(dp1846
g3
g4
sg5
I01
sg6
g7
(I288
I576
I32
I32
tp1847
Rp1848
sba(iMap
Tiles
p1849
(dp1850
g3
g4
sg5
I01
sg6
g7
(I320
I576
I32
I32
tp1851
Rp1852
sba(iMap
Tiles
p1853
(dp1854
g3
g4
sg5
I01
sg6
g7
(I352
I576
I32
I32
tp1855
Rp1856
sba(iMap
Tiles
p1857
(dp1858
g3
g4
sg5
I01
sg6
g7
(I384
I576
I32
I32
tp1859
Rp1860
sba(iMap
Tiles
p1861
(dp1862
g3
g4
sg5
I01
sg6
g7
(I416
I576
I32
I32
tp1863
Rp1864
sba(iMap
Tiles
p1865
(dp1866
g3
g4
sg5
I01
sg6
g7
(I448
I576
I32
I32
tp1867
Rp1868
sba(iMap
Tiles
p1869
(dp1870
g3
g4
sg5
I01
sg6
g7
(I480
I576
I32
I32
tp1871
Rp1872
sba(iMap
Tiles
p1873
(dp1874
g3
g4
sg5
I01
sg6
g7
(I512
I576
I32
I32
tp1875
Rp1876
sba(iMap
Tiles
p1877
(dp1878
g3
g4
sg5
I01
sg6
g7
(I544
I576
I32
I32
tp1879
Rp1880
sba(iMap
Tiles
p1881
(dp1882
g3
g4
sg5
I01
sg6
g7
(I576
I576
I32
I32
tp1883
Rp1884
sba(iMap
Tiles
p1885
(dp1886
g3
g4
sg5
I01
sg6
g7
(I608
I576
I32
I32
tp1887
Rp1888
sba(iMap
Tiles
p1889
(dp1890
g3
g4
sg5
I01
sg6
g7
(I640
I576
I32
I32
tp1891
Rp1892
sba(iMap
Tiles
p1893
(dp1894
g3
g4
sg5
I01
sg6
g7
(I672
I576
I32
I32
tp1895
Rp1896
sba(iMap
Tiles
p1897
(dp1898
g3
g4
sg5
I01
sg6
g7
(I704
I576
I32
I32
tp1899
Rp1900
sba(iMap
Tiles
p1901
(dp1902
g3
g4
sg5
I01
sg6
g7
(I736
I576
I32
I32
tp1903
Rp1904
sba(iMap
Tiles
p1905
(dp1906
g3
g4
sg5
I01
sg6
g7
(I768
I576
I32
I32
tp1907
Rp1908
sba(iMap
Tiles
p1909
(dp1910
g3
g4
sg5
I01
sg6
g7
(I0
I608
I32
I32
tp1911
Rp1912
sba(iMap
Tiles
p1913
(dp1914
g3
g4
sg5
I01
sg6
g7
(I32
I608
I32
I32
tp1915
Rp1916
sba(iMap
Tiles
p1917
(dp1918
g3
g4
sg5
I01
sg6
g7
(I64
I608
I32
I32
tp1919
Rp1920
sba(iMap
Tiles
p1921
(dp1922
g3
g4
sg5
I01
sg6
g7
(I96
I608
I32
I32
tp1923
Rp1924
sba(iMap
Tiles
p1925
(dp1926
g3
g4
sg5
I01
sg6
g7
(I128
I608
I32
I32
tp1927
Rp1928
sba(iMap
Tiles
p1929
(dp1930
g3
g4
sg5
I01
sg6
g7
(I160
I608
I32
I32
tp1931
Rp1932
sba(iMap
Tiles
p1933
(dp1934
g3
g4
sg5
I01
sg6
g7
(I192
I608
I32
I32
tp1935
Rp1936
sba(iMap
Tiles
p1937
(dp1938
g3
g4
sg5
I01
sg6
g7
(I224
I608
I32
I32
tp1939
Rp1940
sba(iMap
Tiles
p1941
(dp1942
g3
g4
sg5
I01
sg6
g7
(I256
I608
I32
I32
tp1943
Rp1944
sba(iMap
Tiles
p1945
(dp1946
g3
g4
sg5
I01
sg6
g7
(I288
I608
I32
I32
tp1947
Rp1948
sba(iMap
Tiles
p1949
(dp1950
g3
g4
sg5
I01
sg6
g7
(I320
I608
I32
I32
tp1951
Rp1952
sba(iMap
Tiles
p1953
(dp1954
g3
g4
sg5
I01
sg6
g7
(I352
I608
I32
I32
tp1955
Rp1956
sba(iMap
Tiles
p1957
(dp1958
g3
g4
sg5
I01
sg6
g7
(I384
I608
I32
I32
tp1959
Rp1960
sba(iMap
Tiles
p1961
(dp1962
g3
g4
sg5
I01
sg6
g7
(I416
I608
I32
I32
tp1963
Rp1964
sba(iMap
Tiles
p1965
(dp1966
g3
g4
sg5
I01
sg6
g7
(I448
I608
I32
I32
tp1967
Rp1968
sba(iMap
Tiles
p1969
(dp1970
g3
g4
sg5
I01
sg6
g7
(I480
I608
I32
I32
tp1971
Rp1972
sba(iMap
Tiles
p1973
(dp1974
g3
g4
sg5
I01
sg6
g7
(I512
I608
I32
I32
tp1975
Rp1976
sba(iMap
Tiles
p1977
(dp1978
g3
g4
sg5
I01
sg6
g7
(I544
I608
I32
I32
tp1979
Rp1980
sba(iMap
Tiles
p1981
(dp1982
g3
g4
sg5
I01
sg6
g7
(I576
I608
I32
I32
tp1983
Rp1984
sba(iMap
Tiles
p1985
(dp1986
g3
g4
sg5
I01
sg6
g7
(I608
I608
I32
I32
tp1987
Rp1988
sba(iMap
Tiles
p1989
(dp1990
g3
g4
sg5
I01
sg6
g7
(I640
I608
I32
I32
tp1991
Rp1992
sba(iMap
Tiles
p1993
(dp1994
g3
g4
sg5
I01
sg6
g7
(I672
I608
I32
I32
tp1995
Rp1996
sba(iMap
Tiles
p1997
(dp1998
g3
g4
sg5
I01
sg6
g7
(I704
I608
I32
I32
tp1999
Rp2000
sba(iMap
Tiles
p2001
(dp2002
g3
g4
sg5
I01
sg6
g7
(I736
I608
I32
I32
tp2003
Rp2004
sba(iMap
Tiles
p2005
(dp2006
g3
g4
sg5
I01
sg6
g7
(I768
I608
I32
I32
tp2007
Rp2008
sba(iMap
Tiles
p2009
(dp2010
g3
g4
sg5
I01
sg6
g7
(I0
I640
I32
I32
tp2011
Rp2012
sba(iMap
Tiles
p2013
(dp2014
g3
g4
sg5
I01
sg6
g7
(I32
I640
I32
I32
tp2015
Rp2016
sba(iMap
Tiles
p2017
(dp2018
g3
g4
sg5
I01
sg6
g7
(I64
I640
I32
I32
tp2019
Rp2020
sba(iMap
Tiles
p2021
(dp2022
g3
g4
sg5
I01
sg6
g7
(I96
I640
I32
I32
tp2023
Rp2024
sba(iMap
Tiles
p2025
(dp2026
g3
g4
sg5
I01
sg6
g7
(I128
I640
I32
I32
tp2027
Rp2028
sba(iMap
Tiles
p2029
(dp2030
g3
g4
sg5
I01
sg6
g7
(I160
I640
I32
I32
tp2031
Rp2032
sba(iMap
Tiles
p2033
(dp2034
g3
g4
sg5
I01
sg6
g7
(I192
I640
I32
I32
tp2035
Rp2036
sba(iMap
Tiles
p2037
(dp2038
g3
g4
sg5
I01
sg6
g7
(I224
I640
I32
I32
tp2039
Rp2040
sba(iMap
Tiles
p2041
(dp2042
g3
g4
sg5
I01
sg6
g7
(I256
I640
I32
I32
tp2043
Rp2044
sba(iMap
Tiles
p2045
(dp2046
g3
g4
sg5
I01
sg6
g7
(I288
I640
I32
I32
tp2047
Rp2048
sba(iMap
Tiles
p2049
(dp2050
g3
g4
sg5
I01
sg6
g7
(I320
I640
I32
I32
tp2051
Rp2052
sba(iMap
Tiles
p2053
(dp2054
g3
g4
sg5
I01
sg6
g7
(I352
I640
I32
I32
tp2055
Rp2056
sba(iMap
Tiles
p2057
(dp2058
g3
g4
sg5
I01
sg6
g7
(I384
I640
I32
I32
tp2059
Rp2060
sba(iMap
Tiles
p2061
(dp2062
g3
g4
sg5
I01
sg6
g7
(I416
I640
I32
I32
tp2063
Rp2064
sba(iMap
Tiles
p2065
(dp2066
g3
g4
sg5
I01
sg6
g7
(I448
I640
I32
I32
tp2067
Rp2068
sba(iMap
Tiles
p2069
(dp2070
g3
g4
sg5
I01
sg6
g7
(I480
I640
I32
I32
tp2071
Rp2072
sba(iMap
Tiles
p2073
(dp2074
g3
g4
sg5
I01
sg6
g7
(I512
I640
I32
I32
tp2075
Rp2076
sba(iMap
Tiles
p2077
(dp2078
g3
g4
sg5
I01
sg6
g7
(I544
I640
I32
I32
tp2079
Rp2080
sba(iMap
Tiles
p2081
(dp2082
g3
g4
sg5
I01
sg6
g7
(I576
I640
I32
I32
tp2083
Rp2084
sba(iMap
Tiles
p2085
(dp2086
g3
g4
sg5
I01
sg6
g7
(I608
I640
I32
I32
tp2087
Rp2088
sba(iMap
Tiles
p2089
(dp2090
g3
g4
sg5
I01
sg6
g7
(I640
I640
I32
I32
tp2091
Rp2092
sba(iMap
Tiles
p2093
(dp2094
g3
g4
sg5
I01
sg6
g7
(I672
I640
I32
I32
tp2095
Rp2096
sba(iMap
Tiles
p2097
(dp2098
g3
g4
sg5
I01
sg6
g7
(I704
I640
I32
I32
tp2099
Rp2100
sba(iMap
Tiles
p2101
(dp2102
g3
g4
sg5
I01
sg6
g7
(I736
I640
I32
I32
tp2103
Rp2104
sba(iMap
Tiles
p2105
(dp2106
g3
g4
sg5
I01
sg6
g7
(I768
I640
I32
I32
tp2107
Rp2108
sba(iMap
Tiles
p2109
(dp2110
g3
g4
sg5
I01
sg6
g7
(I0
I672
I32
I32
tp2111
Rp2112
sba(iMap
Tiles
p2113
(dp2114
g3
g4
sg5
I01
sg6
g7
(I32
I672
I32
I32
tp2115
Rp2116
sba(iMap
Tiles
p2117
(dp2118
g3
g4
sg5
I01
sg6
g7
(I64
I672
I32
I32
tp2119
Rp2120
sba(iMap
Tiles
p2121
(dp2122
g3
g4
sg5
I01
sg6
g7
(I96
I672
I32
I32
tp2123
Rp2124
sba(iMap
Tiles
p2125
(dp2126
g3
g4
sg5
I01
sg6
g7
(I128
I672
I32
I32
tp2127
Rp2128
sba(iMap
Tiles
p2129
(dp2130
g3
g4
sg5
I01
sg6
g7
(I160
I672
I32
I32
tp2131
Rp2132
sba(iMap
Tiles
p2133
(dp2134
g3
g4
sg5
I01
sg6
g7
(I192
I672
I32
I32
tp2135
Rp2136
sba(iMap
Tiles
p2137
(dp2138
g3
g4
sg5
I01
sg6
g7
(I224
I672
I32
I32
tp2139
Rp2140
sba(iMap
Tiles
p2141
(dp2142
g3
g4
sg5
I01
sg6
g7
(I256
I672
I32
I32
tp2143
Rp2144
sba(iMap
Tiles
p2145
(dp2146
g3
g4
sg5
I01
sg6
g7
(I288
I672
I32
I32
tp2147
Rp2148
sba(iMap
Tiles
p2149
(dp2150
g3
g4
sg5
I01
sg6
g7
(I320
I672
I32
I32
tp2151
Rp2152
sba(iMap
Tiles
p2153
(dp2154
g3
g4
sg5
I01
sg6
g7
(I352
I672
I32
I32
tp2155
Rp2156
sba(iMap
Tiles
p2157
(dp2158
g3
g4
sg5
I01
sg6
g7
(I384
I672
I32
I32
tp2159
Rp2160
sba(iMap
Tiles
p2161
(dp2162
g3
g4
sg5
I01
sg6
g7
(I416
I672
I32
I32
tp2163
Rp2164
sba(iMap
Tiles
p2165
(dp2166
g3
g4
sg5
I01
sg6
g7
(I448
I672
I32
I32
tp2167
Rp2168
sba(iMap
Tiles
p2169
(dp2170
g3
g4
sg5
I01
sg6
g7
(I480
I672
I32
I32
tp2171
Rp2172
sba(iMap
Tiles
p2173
(dp2174
g3
g4
sg5
I01
sg6
g7
(I512
I672
I32
I32
tp2175
Rp2176
sba(iMap
Tiles
p2177
(dp2178
g3
g4
sg5
I01
sg6
g7
(I544
I672
I32
I32
tp2179
Rp2180
sba(iMap
Tiles
p2181
(dp2182
g3
g4
sg5
I01
sg6
g7
(I576
I672
I32
I32
tp2183
Rp2184
sba(iMap
Tiles
p2185
(dp2186
g3
g4
sg5
I01
sg6
g7
(I608
I672
I32
I32
tp2187
Rp2188
sba(iMap
Tiles
p2189
(dp2190
g3
g4
sg5
I01
sg6
g7
(I640
I672
I32
I32
tp2191
Rp2192
sba(iMap
Tiles
p2193
(dp2194
g3
g4
sg5
I01
sg6
g7
(I672
I672
I32
I32
tp2195
Rp2196
sba(iMap
Tiles
p2197
(dp2198
g3
g4
sg5
I01
sg6
g7
(I704
I672
I32
I32
tp2199
Rp2200
sba(iMap
Tiles
p2201
(dp2202
g3
g4
sg5
I01
sg6
g7
(I736
I672
I32
I32
tp2203
Rp2204
sba(iMap
Tiles
p2205
(dp2206
g3
g4
sg5
I01
sg6
g7
(I768
I672
I32
I32
tp2207
Rp2208
sba(iMap
Tiles
p2209
(dp2210
g3
g4
sg5
I01
sg6
g7
(I0
I704
I32
I32
tp2211
Rp2212
sba(iMap
Tiles
p2213
(dp2214
g3
g4
sg5
I01
sg6
g7
(I32
I704
I32
I32
tp2215
Rp2216
sba(iMap
Tiles
p2217
(dp2218
g3
g4
sg5
I01
sg6
g7
(I64
I704
I32
I32
tp2219
Rp2220
sba(iMap
Tiles
p2221
(dp2222
g3
g4
sg5
I01
sg6
g7
(I96
I704
I32
I32
tp2223
Rp2224
sba(iMap
Tiles
p2225
(dp2226
g3
g4
sg5
I01
sg6
g7
(I128
I704
I32
I32
tp2227
Rp2228
sba(iMap
Tiles
p2229
(dp2230
g3
g4
sg5
I01
sg6
g7
(I160
I704
I32
I32
tp2231
Rp2232
sba(iMap
Tiles
p2233
(dp2234
g3
g4
sg5
I01
sg6
g7
(I192
I704
I32
I32
tp2235
Rp2236
sba(iMap
Tiles
p2237
(dp2238
g3
g4
sg5
I01
sg6
g7
(I224
I704
I32
I32
tp2239
Rp2240
sba(iMap
Tiles
p2241
(dp2242
g3
g4
sg5
I01
sg6
g7
(I256
I704
I32
I32
tp2243
Rp2244
sba(iMap
Tiles
p2245
(dp2246
g3
g4
sg5
I01
sg6
g7
(I288
I704
I32
I32
tp2247
Rp2248
sba(iMap
Tiles
p2249
(dp2250
g3
g4
sg5
I01
sg6
g7
(I320
I704
I32
I32
tp2251
Rp2252
sba(iMap
Tiles
p2253
(dp2254
g3
g4
sg5
I01
sg6
g7
(I352
I704
I32
I32
tp2255
Rp2256
sba(iMap
Tiles
p2257
(dp2258
g3
g4
sg5
I01
sg6
g7
(I384
I704
I32
I32
tp2259
Rp2260
sba(iMap
Tiles
p2261
(dp2262
g3
g4
sg5
I01
sg6
g7
(I416
I704
I32
I32
tp2263
Rp2264
sba(iMap
Tiles
p2265
(dp2266
g3
g4
sg5
I01
sg6
g7
(I448
I704
I32
I32
tp2267
Rp2268
sba(iMap
Tiles
p2269
(dp2270
g3
g4
sg5
I01
sg6
g7
(I480
I704
I32
I32
tp2271
Rp2272
sba(iMap
Tiles
p2273
(dp2274
g3
g4
sg5
I01
sg6
g7
(I512
I704
I32
I32
tp2275
Rp2276
sba(iMap
Tiles
p2277
(dp2278
g3
g4
sg5
I01
sg6
g7
(I544
I704
I32
I32
tp2279
Rp2280
sba(iMap
Tiles
p2281
(dp2282
g3
g4
sg5
I01
sg6
g7
(I576
I704
I32
I32
tp2283
Rp2284
sba(iMap
Tiles
p2285
(dp2286
g3
g4
sg5
I01
sg6
g7
(I608
I704
I32
I32
tp2287
Rp2288
sba(iMap
Tiles
p2289
(dp2290
g3
g4
sg5
I01
sg6
g7
(I640
I704
I32
I32
tp2291
Rp2292
sba(iMap
Tiles
p2293
(dp2294
g3
g4
sg5
I01
sg6
g7
(I672
I704
I32
I32
tp2295
Rp2296
sba(iMap
Tiles
p2297
(dp2298
g3
g4
sg5
I01
sg6
g7
(I704
I704
I32
I32
tp2299
Rp2300
sba(iMap
Tiles
p2301
(dp2302
g3
g4
sg5
I01
sg6
g7
(I736
I704
I32
I32
tp2303
Rp2304
sba(iMap
Tiles
p2305
(dp2306
g3
g4
sg5
I01
sg6
g7
(I768
I704
I32
I32
tp2307
Rp2308
sba(iMap
Tiles
p2309
(dp2310
g3
g4
sg5
I01
sg6
g7
(I0
I736
I32
I32
tp2311
Rp2312
sba(iMap
Tiles
p2313
(dp2314
g3
g4
sg5
I01
sg6
g7
(I32
I736
I32
I32
tp2315
Rp2316
sba(iMap
Tiles
p2317
(dp2318
g3
g4
sg5
I01
sg6
g7
(I64
I736
I32
I32
tp2319
Rp2320
sba(iMap
Tiles
p2321
(dp2322
g3
g4
sg5
I01
sg6
g7
(I96
I736
I32
I32
tp2323
Rp2324
sba(iMap
Tiles
p2325
(dp2326
g3
g4
sg5
I01
sg6
g7
(I128
I736
I32
I32
tp2327
Rp2328
sba(iMap
Tiles
p2329
(dp2330
g3
g4
sg5
I01
sg6
g7
(I160
I736
I32
I32
tp2331
Rp2332
sba(iMap
Tiles
p2333
(dp2334
g3
g4
sg5
I01
sg6
g7
(I192
I736
I32
I32
tp2335
Rp2336
sba(iMap
Tiles
p2337
(dp2338
g3
g4
sg5
I01
sg6
g7
(I224
I736
I32
I32
tp2339
Rp2340
sba(iMap
Tiles
p2341
(dp2342
g3
g4
sg5
I01
sg6
g7
(I256
I736
I32
I32
tp2343
Rp2344
sba(iMap
Tiles
p2345
(dp2346
g3
g4
sg5
I01
sg6
g7
(I288
I736
I32
I32
tp2347
Rp2348
sba(iMap
Tiles
p2349
(dp2350
g3
g4
sg5
I01
sg6
g7
(I320
I736
I32
I32
tp2351
Rp2352
sba(iMap
Tiles
p2353
(dp2354
g3
g4
sg5
I01
sg6
g7
(I352
I736
I32
I32
tp2355
Rp2356
sba(iMap
Tiles
p2357
(dp2358
g3
g4
sg5
I01
sg6
g7
(I384
I736
I32
I32
tp2359
Rp2360
sba(iMap
Tiles
p2361
(dp2362
g3
g4
sg5
I01
sg6
g7
(I416
I736
I32
I32
tp2363
Rp2364
sba(iMap
Tiles
p2365
(dp2366
g3
g4
sg5
I01
sg6
g7
(I448
I736
I32
I32
tp2367
Rp2368
sba(iMap
Tiles
p2369
(dp2370
g3
g4
sg5
I01
sg6
g7
(I480
I736
I32
I32
tp2371
Rp2372
sba(iMap
Tiles
p2373
(dp2374
g3
g4
sg5
I01
sg6
g7
(I512
I736
I32
I32
tp2375
Rp2376
sba(iMap
Tiles
p2377
(dp2378
g3
g4
sg5
I01
sg6
g7
(I544
I736
I32
I32
tp2379
Rp2380
sba(iMap
Tiles
p2381
(dp2382
g3
g4
sg5
I01
sg6
g7
(I576
I736
I32
I32
tp2383
Rp2384
sba(iMap
Tiles
p2385
(dp2386
g3
g4
sg5
I01
sg6
g7
(I608
I736
I32
I32
tp2387
Rp2388
sba(iMap
Tiles
p2389
(dp2390
g3
g4
sg5
I01
sg6
g7
(I640
I736
I32
I32
tp2391
Rp2392
sba(iMap
Tiles
p2393
(dp2394
g3
g4
sg5
I01
sg6
g7
(I672
I736
I32
I32
tp2395
Rp2396
sba(iMap
Tiles
p2397
(dp2398
g3
g4
sg5
I01
sg6
g7
(I704
I736
I32
I32
tp2399
Rp2400
sba(iMap
Tiles
p2401
(dp2402
g3
g4
sg5
I01
sg6
g7
(I736
I736
I32
I32
tp2403
Rp2404
sba(iMap
Tiles
p2405
(dp2406
g3
g4
sg5
I01
sg6
g7
(I768
I736
I32
I32
tp2407
Rp2408
sba(iMap
Tiles
p2409
(dp2410
g3
g4
sg5
I01
sg6
g7
(I0
I768
I32
I32
tp2411
Rp2412
sba(iMap
Tiles
p2413
(dp2414
g3
g4
sg5
I01
sg6
g7
(I32
I768
I32
I32
tp2415
Rp2416
sba(iMap
Tiles
p2417
(dp2418
g3
g4
sg5
I01
sg6
g7
(I64
I768
I32
I32
tp2419
Rp2420
sba(iMap
Tiles
p2421
(dp2422
g3
g4
sg5
I01
sg6
g7
(I96
I768
I32
I32
tp2423
Rp2424
sba(iMap
Tiles
p2425
(dp2426
g3
g4
sg5
I01
sg6
g7
(I128
I768
I32
I32
tp2427
Rp2428
sba(iMap
Tiles
p2429
(dp2430
g3
g4
sg5
I01
sg6
g7
(I160
I768
I32
I32
tp2431
Rp2432
sba(iMap
Tiles
p2433
(dp2434
g3
g4
sg5
I01
sg6
g7
(I192
I768
I32
I32
tp2435
Rp2436
sba(iMap
Tiles
p2437
(dp2438
g3
g4
sg5
I01
sg6
g7
(I224
I768
I32
I32
tp2439
Rp2440
sba(iMap
Tiles
p2441
(dp2442
g3
g4
sg5
I01
sg6
g7
(I256
I768
I32
I32
tp2443
Rp2444
sba(iMap
Tiles
p2445
(dp2446
g3
g4
sg5
I01
sg6
g7
(I288
I768
I32
I32
tp2447
Rp2448
sba(iMap
Tiles
p2449
(dp2450
g3
g4
sg5
I01
sg6
g7
(I320
I768
I32
I32
tp2451
Rp2452
sba(iMap
Tiles
p2453
(dp2454
g3
g4
sg5
I01
sg6
g7
(I352
I768
I32
I32
tp2455
Rp2456
sba(iMap
Tiles
p2457
(dp2458
g3
g4
sg5
I01
sg6
g7
(I384
I768
I32
I32
tp2459
Rp2460
sba(iMap
Tiles
p2461
(dp2462
g3
g4
sg5
I01
sg6
g7
(I416
I768
I32
I32
tp2463
Rp2464
sba(iMap
Tiles
p2465
(dp2466
g3
g4
sg5
I01
sg6
g7
(I448
I768
I32
I32
tp2467
Rp2468
sba(iMap
Tiles
p2469
(dp2470
g3
g4
sg5
I01
sg6
g7
(I480
I768
I32
I32
tp2471
Rp2472
sba(iMap
Tiles
p2473
(dp2474
g3
g4
sg5
I01
sg6
g7
(I512
I768
I32
I32
tp2475
Rp2476
sba(iMap
Tiles
p2477
(dp2478
g3
g4
sg5
I01
sg6
g7
(I544
I768
I32
I32
tp2479
Rp2480
sba(iMap
Tiles
p2481
(dp2482
g3
g4
sg5
I01
sg6
g7
(I576
I768
I32
I32
tp2483
Rp2484
sba(iMap
Tiles
p2485
(dp2486
g3
g4
sg5
I01
sg6
g7
(I608
I768
I32
I32
tp2487
Rp2488
sba(iMap
Tiles
p2489
(dp2490
g3
g4
sg5
I01
sg6
g7
(I640
I768
I32
I32
tp2491
Rp2492
sba(iMap
Tiles
p2493
(dp2494
g3
g4
sg5
I01
sg6
g7
(I672
I768
I32
I32
tp2495
Rp2496
sba(iMap
Tiles
p2497
(dp2498
g3
g4
sg5
I01
sg6
g7
(I704
I768
I32
I32
tp2499
Rp2500
sba(iMap
Tiles
p2501
(dp2502
g3
g4
sg5
I01
sg6
g7
(I736
I768
I32
I32
tp2503
Rp2504
sba(iMap
Tiles
p2505
(dp2506
g3
g4
sg5
I01
sg6
g7
(I768
I768
I32
I32
tp2507
Rp2508
sba.