(lp0
(iMap
Tiles
p1
(dp2
S'color'
p3
(I255
I0
I0
tp4
sS'is_wall'
p5
I01
sS'rect'
p6
cpygame
__rect_constructor
p7
(I0
I0
I32
I32
tp8
Rp9
sba(iMap
Tiles
p10
(dp11
g3
g4
sg5
I01
sg6
g7
(I32
I0
I32
I32
tp12
Rp13
sba(iMap
Tiles
p14
(dp15
g3
g4
sg5
I01
sg6
g7
(I64
I0
I32
I32
tp16
Rp17
sba(iMap
Tiles
p18
(dp19
g3
g4
sg5
I01
sg6
g7
(I96
I0
I32
I32
tp20
Rp21
sba(iMap
Tiles
p22
(dp23
g3
g4
sg5
I01
sg6
g7
(I128
I0
I32
I32
tp24
Rp25
sba(iMap
Tiles
p26
(dp27
g3
g4
sg5
I01
sg6
g7
(I160
I0
I32
I32
tp28
Rp29
sba(iMap
Tiles
p30
(dp31
g3
g4
sg5
I01
sg6
g7
(I192
I0
I32
I32
tp32
Rp33
sba(iMap
Tiles
p34
(dp35
g3
g4
sg5
I01
sg6
g7
(I224
I0
I32
I32
tp36
Rp37
sba(iMap
Tiles
p38
(dp39
g3
g4
sg5
I01
sg6
g7
(I256
I0
I32
I32
tp40
Rp41
sba(iMap
Tiles
p42
(dp43
g3
g4
sg5
I01
sg6
g7
(I288
I0
I32
I32
tp44
Rp45
sba(iMap
Tiles
p46
(dp47
g3
g4
sg5
I01
sg6
g7
(I320
I0
I32
I32
tp48
Rp49
sba(iMap
Tiles
p50
(dp51
g3
g4
sg5
I01
sg6
g7
(I352
I0
I32
I32
tp52
Rp53
sba(iMap
Tiles
p54
(dp55
g3
g4
sg5
I01
sg6
g7
(I384
I0
I32
I32
tp56
Rp57
sba(iMap
Tiles
p58
(dp59
g3
g4
sg5
I01
sg6
g7
(I416
I0
I32
I32
tp60
Rp61
sba(iMap
Tiles
p62
(dp63
g3
g4
sg5
I01
sg6
g7
(I448
I0
I32
I32
tp64
Rp65
sba(iMap
Tiles
p66
(dp67
g3
g4
sg5
I01
sg6
g7
(I480
I0
I32
I32
tp68
Rp69
sba(iMap
Tiles
p70
(dp71
g3
g4
sg5
I01
sg6
g7
(I512
I0
I32
I32
tp72
Rp73
sba(iMap
Tiles
p74
(dp75
g3
g4
sg5
I01
sg6
g7
(I544
I0
I32
I32
tp76
Rp77
sba(iMap
Tiles
p78
(dp79
g3
g4
sg5
I01
sg6
g7
(I576
I0
I32
I32
tp80
Rp81
sba(iMap
Tiles
p82
(dp83
g3
g4
sg5
I01
sg6
g7
(I608
I0
I32
I32
tp84
Rp85
sba(iMap
Tiles
p86
(dp87
g3
g4
sg5
I01
sg6
g7
(I640
I0
I32
I32
tp88
Rp89
sba(iMap
Tiles
p90
(dp91
g3
g4
sg5
I01
sg6
g7
(I672
I0
I32
I32
tp92
Rp93
sba(iMap
Tiles
p94
(dp95
g3
g4
sg5
I01
sg6
g7
(I704
I0
I32
I32
tp96
Rp97
sba(iMap
Tiles
p98
(dp99
g3
g4
sg5
I01
sg6
g7
(I736
I0
I32
I32
tp100
Rp101
sba(iMap
Tiles
p102
(dp103
g3
g4
sg5
I01
sg6
g7
(I768
I0
I32
I32
tp104
Rp105
sba(iMap
Tiles
p106
(dp107
g3
g4
sg5
I01
sg6
g7
(I0
I32
I32
I32
tp108
Rp109
sba(iMap
Tiles
p110
(dp111
g3
g4
sg5
I01
sg6
g7
(I32
I32
I32
I32
tp112
Rp113
sba(iMap
Tiles
p114
(dp115
g3
g4
sg5
I01
sg6
g7
(I64
I32
I32
I32
tp116
Rp117
sba(iMap
Tiles
p118
(dp119
g3
g4
sg5
I01
sg6
g7
(I96
I32
I32
I32
tp120
Rp121
sba(iMap
Tiles
p122
(dp123
g3
g4
sg5
I01
sg6
g7
(I128
I32
I32
I32
tp124
Rp125
sba(iMap
Tiles
p126
(dp127
g3
g4
sg5
I01
sg6
g7
(I160
I32
I32
I32
tp128
Rp129
sba(iMap
Tiles
p130
(dp131
g3
g4
sg5
I01
sg6
g7
(I192
I32
I32
I32
tp132
Rp133
sba(iMap
Tiles
p134
(dp135
g3
g4
sg5
I01
sg6
g7
(I224
I32
I32
I32
tp136
Rp137
sba(iMap
Tiles
p138
(dp139
g3
g4
sg5
I01
sg6
g7
(I256
I32
I32
I32
tp140
Rp141
sba(iMap
Tiles
p142
(dp143
g3
g4
sg5
I01
sg6
g7
(I288
I32
I32
I32
tp144
Rp145
sba(iMap
Tiles
p146
(dp147
g3
g4
sg5
I01
sg6
g7
(I320
I32
I32
I32
tp148
Rp149
sba(iMap
Tiles
p150
(dp151
g3
g4
sg5
I01
sg6
g7
(I352
I32
I32
I32
tp152
Rp153
sba(iMap
Tiles
p154
(dp155
g3
g4
sg5
I01
sg6
g7
(I384
I32
I32
I32
tp156
Rp157
sba(iMap
Tiles
p158
(dp159
g3
g4
sg5
I01
sg6
g7
(I416
I32
I32
I32
tp160
Rp161
sba(iMap
Tiles
p162
(dp163
g3
g4
sg5
I01
sg6
g7
(I448
I32
I32
I32
tp164
Rp165
sba(iMap
Tiles
p166
(dp167
g3
g4
sg5
I01
sg6
g7
(I480
I32
I32
I32
tp168
Rp169
sba(iMap
Tiles
p170
(dp171
g3
g4
sg5
I01
sg6
g7
(I512
I32
I32
I32
tp172
Rp173
sba(iMap
Tiles
p174
(dp175
g3
g4
sg5
I01
sg6
g7
(I544
I32
I32
I32
tp176
Rp177
sba(iMap
Tiles
p178
(dp179
g3
g4
sg5
I01
sg6
g7
(I576
I32
I32
I32
tp180
Rp181
sba(iMap
Tiles
p182
(dp183
g3
g4
sg5
I01
sg6
g7
(I608
I32
I32
I32
tp184
Rp185
sba(iMap
Tiles
p186
(dp187
g3
g4
sg5
I01
sg6
g7
(I640
I32
I32
I32
tp188
Rp189
sba(iMap
Tiles
p190
(dp191
g3
g4
sg5
I01
sg6
g7
(I672
I32
I32
I32
tp192
Rp193
sba(iMap
Tiles
p194
(dp195
g3
g4
sg5
I01
sg6
g7
(I704
I32
I32
I32
tp196
Rp197
sba(iMap
Tiles
p198
(dp199
g3
g4
sg5
I01
sg6
g7
(I736
I32
I32
I32
tp200
Rp201
sba(iMap
Tiles
p202
(dp203
g3
g4
sg5
I01
sg6
g7
(I768
I32
I32
I32
tp204
Rp205
sba(iMap
Tiles
p206
(dp207
g3
g4
sg5
I01
sg6
g7
(I0
I64
I32
I32
tp208
Rp209
sba(iMap
Tiles
p210
(dp211
g3
g4
sg5
I01
sg6
g7
(I32
I64
I32
I32
tp212
Rp213
sba(iMap
Tiles
p214
(dp215
g3
g4
sg5
I01
sg6
g7
(I64
I64
I32
I32
tp216
Rp217
sba(iMap
Tiles
p218
(dp219
g3
g4
sg5
I01
sg6
g7
(I96
I64
I32
I32
tp220
Rp221
sba(iMap
Tiles
p222
(dp223
g3
g4
sg5
I01
sg6
g7
(I128
I64
I32
I32
tp224
Rp225
sba(iMap
Tiles
p226
(dp227
g3
g4
sg5
I01
sg6
g7
(I160
I64
I32
I32
tp228
Rp229
sba(iMap
Tiles
p230
(dp231
g3
g4
sg5
I01
sg6
g7
(I192
I64
I32
I32
tp232
Rp233
sba(iMap
Tiles
p234
(dp235
g3
g4
sg5
I01
sg6
g7
(I224
I64
I32
I32
tp236
Rp237
sba(iMap
Tiles
p238
(dp239
g3
g4
sg5
I01
sg6
g7
(I256
I64
I32
I32
tp240
Rp241
sba(iMap
Tiles
p242
(dp243
g3
g4
sg5
I01
sg6
g7
(I288
I64
I32
I32
tp244
Rp245
sba(iMap
Tiles
p246
(dp247
g3
g4
sg5
I01
sg6
g7
(I320
I64
I32
I32
tp248
Rp249
sba(iMap
Tiles
p250
(dp251
g3
g4
sg5
I01
sg6
g7
(I352
I64
I32
I32
tp252
Rp253
sba(iMap
Tiles
p254
(dp255
g3
g4
sg5
I01
sg6
g7
(I384
I64
I32
I32
tp256
Rp257
sba(iMap
Tiles
p258
(dp259
g3
g4
sg5
I01
sg6
g7
(I416
I64
I32
I32
tp260
Rp261
sba(iMap
Tiles
p262
(dp263
g3
g4
sg5
I01
sg6
g7
(I448
I64
I32
I32
tp264
Rp265
sba(iMap
Tiles
p266
(dp267
g3
g4
sg5
I01
sg6
g7
(I480
I64
I32
I32
tp268
Rp269
sba(iMap
Tiles
p270
(dp271
g3
g4
sg5
I01
sg6
g7
(I512
I64
I32
I32
tp272
Rp273
sba(iMap
Tiles
p274
(dp275
g3
g4
sg5
I01
sg6
g7
(I544
I64
I32
I32
tp276
Rp277
sba(iMap
Tiles
p278
(dp279
g3
g4
sg5
I01
sg6
g7
(I576
I64
I32
I32
tp280
Rp281
sba(iMap
Tiles
p282
(dp283
g3
g4
sg5
I01
sg6
g7
(I608
I64
I32
I32
tp284
Rp285
sba(iMap
Tiles
p286
(dp287
g3
g4
sg5
I01
sg6
g7
(I640
I64
I32
I32
tp288
Rp289
sba(iMap
Tiles
p290
(dp291
g3
g4
sg5
I01
sg6
g7
(I672
I64
I32
I32
tp292
Rp293
sba(iMap
Tiles
p294
(dp295
g3
g4
sg5
I01
sg6
g7
(I704
I64
I32
I32
tp296
Rp297
sba(iMap
Tiles
p298
(dp299
g3
g4
sg5
I01
sg6
g7
(I736
I64
I32
I32
tp300
Rp301
sba(iMap
Tiles
p302
(dp303
g3
g4
sg5
I01
sg6
g7
(I768
I64
I32
I32
tp304
Rp305
sba(iMap
Tiles
p306
(dp307
g3
g4
sg5
I01
sg6
g7
(I0
I96
I32
I32
tp308
Rp309
sba(iMap
Tiles
p310
(dp311
g3
g4
sg5
I01
sg6
g7
(I32
I96
I32
I32
tp312
Rp313
sba(iMap
Tiles
p314
(dp315
g3
g4
sg5
I01
sg6
g7
(I64
I96
I32
I32
tp316
Rp317
sba(iMap
Tiles
p318
(dp319
g3
g4
sg5
I01
sg6
g7
(I96
I96
I32
I32
tp320
Rp321
sba(iMap
Tiles
p322
(dp323
g3
g4
sg5
I01
sg6
g7
(I128
I96
I32
I32
tp324
Rp325
sba(iMap
Tiles
p326
(dp327
g3
g4
sg5
I01
sg6
g7
(I160
I96
I32
I32
tp328
Rp329
sba(iMap
Tiles
p330
(dp331
g3
g4
sg5
I01
sg6
g7
(I192
I96
I32
I32
tp332
Rp333
sba(iMap
Tiles
p334
(dp335
g3
g4
sg5
I01
sg6
g7
(I224
I96
I32
I32
tp336
Rp337
sba(iMap
Tiles
p338
(dp339
g3
g4
sg5
I01
sg6
g7
(I256
I96
I32
I32
tp340
Rp341
sba(iMap
Tiles
p342
(dp343
g3
g4
sg5
I01
sg6
g7
(I288
I96
I32
I32
tp344
Rp345
sba(iMap
Tiles
p346
(dp347
g3
g4
sg5
I01
sg6
g7
(I320
I96
I32
I32
tp348
Rp349
sba(iMap
Tiles
p350
(dp351
g3
g4
sg5
I01
sg6
g7
(I352
I96
I32
I32
tp352
Rp353
sba(iMap
Tiles
p354
(dp355
g3
g4
sg5
I01
sg6
g7
(I384
I96
I32
I32
tp356
Rp357
sba(iMap
Tiles
p358
(dp359
g3
g4
sg5
I01
sg6
g7
(I416
I96
I32
I32
tp360
Rp361
sba(iMap
Tiles
p362
(dp363
g3
g4
sg5
I01
sg6
g7
(I448
I96
I32
I32
tp364
Rp365
sba(iMap
Tiles
p366
(dp367
g3
g4
sg5
I01
sg6
g7
(I480
I96
I32
I32
tp368
Rp369
sba(iMap
Tiles
p370
(dp371
g3
g4
sg5
I01
sg6
g7
(I512
I96
I32
I32
tp372
Rp373
sba(iMap
Tiles
p374
(dp375
g3
g4
sg5
I01
sg6
g7
(I544
I96
I32
I32
tp376
Rp377
sba(iMap
Tiles
p378
(dp379
g3
g4
sg5
I01
sg6
g7
(I576
I96
I32
I32
tp380
Rp381
sba(iMap
Tiles
p382
(dp383
g3
g4
sg5
I01
sg6
g7
(I608
I96
I32
I32
tp384
Rp385
sba(iMap
Tiles
p386
(dp387
g3
g4
sg5
I01
sg6
g7
(I640
I96
I32
I32
tp388
Rp389
sba(iMap
Tiles
p390
(dp391
g3
g4
sg5
I01
sg6
g7
(I672
I96
I32
I32
tp392
Rp393
sba(iMap
Tiles
p394
(dp395
g3
g4
sg5
I01
sg6
g7
(I704
I96
I32
I32
tp396
Rp397
sba(iMap
Tiles
p398
(dp399
g3
g4
sg5
I01
sg6
g7
(I736
I96
I32
I32
tp400
Rp401
sba(iMap
Tiles
p402
(dp403
g3
g4
sg5
I01
sg6
g7
(I768
I96
I32
I32
tp404
Rp405
sba(iMap
Tiles
p406
(dp407
g3
g4
sg5
I01
sg6
g7
(I0
I128
I32
I32
tp408
Rp409
sba(iMap
Tiles
p410
(dp411
g3
g4
sg5
I01
sg6
g7
(I32
I128
I32
I32
tp412
Rp413
sba(iMap
Tiles
p414
(dp415
g3
g4
sg5
I01
sg6
g7
(I64
I128
I32
I32
tp416
Rp417
sba(iMap
Tiles
p418
(dp419
g3
g4
sg5
I01
sg6
g7
(I96
I128
I32
I32
tp420
Rp421
sba(iMap
Tiles
p422
(dp423
g3
g4
sg5
I01
sg6
g7
(I128
I128
I32
I32
tp424
Rp425
sba(iMap
Tiles
p426
(dp427
g3
g4
sg5
I01
sg6
g7
(I160
I128
I32
I32
tp428
Rp429
sba(iMap
Tiles
p430
(dp431
g3
g4
sg5
I01
sg6
g7
(I192
I128
I32
I32
tp432
Rp433
sba(iMap
Tiles
p434
(dp435
g3
g4
sg5
I01
sg6
g7
(I224
I128
I32
I32
tp436
Rp437
sba(iMap
Tiles
p438
(dp439
g3
g4
sg5
I01
sg6
g7
(I256
I128
I32
I32
tp440
Rp441
sba(iMap
Tiles
p442
(dp443
g3
g4
sg5
I01
sg6
g7
(I288
I128
I32
I32
tp444
Rp445
sba(iMap
Tiles
p446
(dp447
g3
g4
sg5
I01
sg6
g7
(I320
I128
I32
I32
tp448
Rp449
sba(iMap
Tiles
p450
(dp451
g3
g4
sg5
I01
sg6
g7
(I352
I128
I32
I32
tp452
Rp453
sba(iMap
Tiles
p454
(dp455
g3
g4
sg5
I01
sg6
g7
(I384
I128
I32
I32
tp456
Rp457
sba(iMap
Tiles
p458
(dp459
g3
g4
sg5
I01
sg6
g7
(I416
I128
I32
I32
tp460
Rp461
sba(iMap
Tiles
p462
(dp463
g3
g4
sg5
I01
sg6
g7
(I448
I128
I32
I32
tp464
Rp465
sba(iMap
Tiles
p466
(dp467
g3
g4
sg5
I01
sg6
g7
(I480
I128
I32
I32
tp468
Rp469
sba(iMap
Tiles
p470
(dp471
g3
g4
sg5
I01
sg6
g7
(I512
I128
I32
I32
tp472
Rp473
sba(iMap
Tiles
p474
(dp475
g3
g4
sg5
I01
sg6
g7
(I544
I128
I32
I32
tp476
Rp477
sba(iMap
Tiles
p478
(dp479
g3
g4
sg5
I01
sg6
g7
(I576
I128
I32
I32
tp480
Rp481
sba(iMap
Tiles
p482
(dp483
g3
g4
sg5
I01
sg6
g7
(I608
I128
I32
I32
tp484
Rp485
sba(iMap
Tiles
p486
(dp487
g3
g4
sg5
I01
sg6
g7
(I640
I128
I32
I32
tp488
Rp489
sba(iMap
Tiles
p490
(dp491
g3
g4
sg5
I01
sg6
g7
(I672
I128
I32
I32
tp492
Rp493
sba(iMap
Tiles
p494
(dp495
g3
g4
sg5
I01
sg6
g7
(I704
I128
I32
I32
tp496
Rp497
sba(iMap
Tiles
p498
(dp499
g3
g4
sg5
I01
sg6
g7
(I736
I128
I32
I32
tp500
Rp501
sba(iMap
Tiles
p502
(dp503
g3
g4
sg5
I01
sg6
g7
(I768
I128
I32
I32
tp504
Rp505
sba(iMap
Tiles
p506
(dp507
g3
g4
sg5
I01
sg6
g7
(I0
I160
I32
I32
tp508
Rp509
sba(iMap
Tiles
p510
(dp511
g3
g4
sg5
I01
sg6
g7
(I32
I160
I32
I32
tp512
Rp513
sba(iMap
Tiles
p514
(dp515
g3
g4
sg5
I01
sg6
g7
(I64
I160
I32
I32
tp516
Rp517
sba(iMap
Tiles
p518
(dp519
g3
g4
sg5
I01
sg6
g7
(I96
I160
I32
I32
tp520
Rp521
sba(iMap
Tiles
p522
(dp523
g3
g4
sg5
I01
sg6
g7
(I128
I160
I32
I32
tp524
Rp525
sba(iMap
Tiles
p526
(dp527
g3
g4
sg5
I01
sg6
g7
(I160
I160
I32
I32
tp528
Rp529
sba(iMap
Tiles
p530
(dp531
g3
g4
sg5
I01
sg6
g7
(I192
I160
I32
I32
tp532
Rp533
sba(iMap
Tiles
p534
(dp535
g3
g4
sg5
I01
sg6
g7
(I224
I160
I32
I32
tp536
Rp537
sba(iMap
Tiles
p538
(dp539
g3
g4
sg5
I01
sg6
g7
(I256
I160
I32
I32
tp540
Rp541
sba(iMap
Tiles
p542
(dp543
g3
g4
sg5
I01
sg6
g7
(I288
I160
I32
I32
tp544
Rp545
sba(iMap
Tiles
p546
(dp547
g3
g4
sg5
I01
sg6
g7
(I320
I160
I32
I32
tp548
Rp549
sba(iMap
Tiles
p550
(dp551
g3
g4
sg5
I01
sg6
g7
(I352
I160
I32
I32
tp552
Rp553
sba(iMap
Tiles
p554
(dp555
g3
g4
sg5
I01
sg6
g7
(I384
I160
I32
I32
tp556
Rp557
sba(iMap
Tiles
p558
(dp559
g3
g4
sg5
I01
sg6
g7
(I416
I160
I32
I32
tp560
Rp561
sba(iMap
Tiles
p562
(dp563
g3
g4
sg5
I01
sg6
g7
(I448
I160
I32
I32
tp564
Rp565
sba(iMap
Tiles
p566
(dp567
g3
g4
sg5
I01
sg6
g7
(I480
I160
I32
I32
tp568
Rp569
sba(iMap
Tiles
p570
(dp571
g3
g4
sg5
I01
sg6
g7
(I512
I160
I32
I32
tp572
Rp573
sba(iMap
Tiles
p574
(dp575
g3
g4
sg5
I01
sg6
g7
(I544
I160
I32
I32
tp576
Rp577
sba(iMap
Tiles
p578
(dp579
g3
g4
sg5
I01
sg6
g7
(I576
I160
I32
I32
tp580
Rp581
sba(iMap
Tiles
p582
(dp583
g3
g4
sg5
I01
sg6
g7
(I608
I160
I32
I32
tp584
Rp585
sba(iMap
Tiles
p586
(dp587
g3
g4
sg5
I01
sg6
g7
(I640
I160
I32
I32
tp588
Rp589
sba(iMap
Tiles
p590
(dp591
g3
g4
sg5
I01
sg6
g7
(I672
I160
I32
I32
tp592
Rp593
sba(iMap
Tiles
p594
(dp595
g3
g4
sg5
I01
sg6
g7
(I704
I160
I32
I32
tp596
Rp597
sba(iMap
Tiles
p598
(dp599
g3
g4
sg5
I01
sg6
g7
(I736
I160
I32
I32
tp600
Rp601
sba(iMap
Tiles
p602
(dp603
g3
g4
sg5
I01
sg6
g7
(I768
I160
I32
I32
tp604
Rp605
sba(iMap
Tiles
p606
(dp607
g3
g4
sg5
I01
sg6
g7
(I0
I192
I32
I32
tp608
Rp609
sba(iMap
Tiles
p610
(dp611
g3
g4
sg5
I01
sg6
g7
(I32
I192
I32
I32
tp612
Rp613
sba(iMap
Tiles
p614
(dp615
g3
g4
sg5
I01
sg6
g7
(I64
I192
I32
I32
tp616
Rp617
sba(iMap
Tiles
p618
(dp619
g3
g4
sg5
I01
sg6
g7
(I96
I192
I32
I32
tp620
Rp621
sba(iMap
Tiles
p622
(dp623
g3
g4
sg5
I01
sg6
g7
(I128
I192
I32
I32
tp624
Rp625
sba(iMap
Tiles
p626
(dp627
g3
g4
sg5
I01
sg6
g7
(I160
I192
I32
I32
tp628
Rp629
sba(iMap
Tiles
p630
(dp631
g3
g4
sg5
I01
sg6
g7
(I192
I192
I32
I32
tp632
Rp633
sba(iMap
Tiles
p634
(dp635
g3
g4
sg5
I01
sg6
g7
(I224
I192
I32
I32
tp636
Rp637
sba(iMap
Tiles
p638
(dp639
g3
g4
sg5
I01
sg6
g7
(I256
I192
I32
I32
tp640
Rp641
sba(iMap
Tiles
p642
(dp643
g3
g4
sg5
I01
sg6
g7
(I288
I192
I32
I32
tp644
Rp645
sba(iMap
Tiles
p646
(dp647
g3
g4
sg5
I01
sg6
g7
(I320
I192
I32
I32
tp648
Rp649
sba(iMap
Tiles
p650
(dp651
g3
g4
sg5
I01
sg6
g7
(I352
I192
I32
I32
tp652
Rp653
sba(iMap
Tiles
p654
(dp655
g3
g4
sg5
I01
sg6
g7
(I384
I192
I32
I32
tp656
Rp657
sba(iMap
Tiles
p658
(dp659
g3
g4
sg5
I01
sg6
g7
(I416
I192
I32
I32
tp660
Rp661
sba(iMap
Tiles
p662
(dp663
g3
g4
sg5
I01
sg6
g7
(I448
I192
I32
I32
tp664
Rp665
sba(iMap
Tiles
p666
(dp667
g3
g4
sg5
I01
sg6
g7
(I480
I192
I32
I32
tp668
Rp669
sba(iMap
Tiles
p670
(dp671
g3
g4
sg5
I01
sg6
g7
(I512
I192
I32
I32
tp672
Rp673
sba(iMap
Tiles
p674
(dp675
g3
g4
sg5
I01
sg6
g7
(I544
I192
I32
I32
tp676
Rp677
sba(iMap
Tiles
p678
(dp679
g3
g4
sg5
I01
sg6
g7
(I576
I192
I32
I32
tp680
Rp681
sba(iMap
Tiles
p682
(dp683
g3
g4
sg5
I01
sg6
g7
(I608
I192
I32
I32
tp684
Rp685
sba(iMap
Tiles
p686
(dp687
g3
g4
sg5
I01
sg6
g7
(I640
I192
I32
I32
tp688
Rp689
sba(iMap
Tiles
p690
(dp691
g3
g4
sg5
I01
sg6
g7
(I672
I192
I32
I32
tp692
Rp693
sba(iMap
Tiles
p694
(dp695
g3
g4
sg5
I01
sg6
g7
(I704
I192
I32
I32
tp696
Rp697
sba(iMap
Tiles
p698
(dp699
g3
g4
sg5
I01
sg6
g7
(I736
I192
I32
I32
tp700
Rp701
sba(iMap
Tiles
p702
(dp703
g3
g4
sg5
I01
sg6
g7
(I768
I192
I32
I32
tp704
Rp705
sba(iMap
Tiles
p706
(dp707
g3
g4
sg5
I01
sg6
g7
(I0
I224
I32
I32
tp708
Rp709
sba(iMap
Tiles
p710
(dp711
g3
g4
sg5
I01
sg6
g7
(I32
I224
I32
I32
tp712
Rp713
sba(iMap
Tiles
p714
(dp715
g3
g4
sg5
I01
sg6
g7
(I64
I224
I32
I32
tp716
Rp717
sba(iMap
Tiles
p718
(dp719
g3
g4
sg5
I01
sg6
g7
(I96
I224
I32
I32
tp720
Rp721
sba(iMap
Tiles
p722
(dp723
g3
g4
sg5
I01
sg6
g7
(I128
I224
I32
I32
tp724
Rp725
sba(iMap
Tiles
p726
(dp727
g3
g4
sg5
I01
sg6
g7
(I160
I224
I32
I32
tp728
Rp729
sba(iMap
Tiles
p730
(dp731
g3
g4
sg5
I01
sg6
g7
(I192
I224
I32
I32
tp732
Rp733
sba(iMap
Tiles
p734
(dp735
g3
g4
sg5
I01
sg6
g7
(I224
I224
I32
I32
tp736
Rp737
sba(iMap
Tiles
p738
(dp739
g3
g4
sg5
I01
sg6
g7
(I256
I224
I32
I32
tp740
Rp741
sba(iMap
Tiles
p742
(dp743
g3
g4
sg5
I01
sg6
g7
(I288
I224
I32
I32
tp744
Rp745
sba(iMap
Tiles
p746
(dp747
g3
g4
sg5
I01
sg6
g7
(I320
I224
I32
I32
tp748
Rp749
sba(iMap
Tiles
p750
(dp751
g3
g4
sg5
I01
sg6
g7
(I352
I224
I32
I32
tp752
Rp753
sba(iMap
Tiles
p754
(dp755
g3
g4
sg5
I01
sg6
g7
(I384
I224
I32
I32
tp756
Rp757
sba(iMap
Tiles
p758
(dp759
g3
g4
sg5
I01
sg6
g7
(I416
I224
I32
I32
tp760
Rp761
sba(iMap
Tiles
p762
(dp763
g3
g4
sg5
I01
sg6
g7
(I448
I224
I32
I32
tp764
Rp765
sba(iMap
Tiles
p766
(dp767
g3
g4
sg5
I01
sg6
g7
(I480
I224
I32
I32
tp768
Rp769
sba(iMap
Tiles
p770
(dp771
g3
g4
sg5
I01
sg6
g7
(I512
I224
I32
I32
tp772
Rp773
sba(iMap
Tiles
p774
(dp775
g3
g4
sg5
I01
sg6
g7
(I544
I224
I32
I32
tp776
Rp777
sba(iMap
Tiles
p778
(dp779
g3
g4
sg5
I01
sg6
g7
(I576
I224
I32
I32
tp780
Rp781
sba(iMap
Tiles
p782
(dp783
g3
g4
sg5
I01
sg6
g7
(I608
I224
I32
I32
tp784
Rp785
sba(iMap
Tiles
p786
(dp787
g3
g4
sg5
I01
sg6
g7
(I640
I224
I32
I32
tp788
Rp789
sba(iMap
Tiles
p790
(dp791
g3
g4
sg5
I01
sg6
g7
(I672
I224
I32
I32
tp792
Rp793
sba(iMap
Tiles
p794
(dp795
g3
g4
sg5
I01
sg6
g7
(I704
I224
I32
I32
tp796
Rp797
sba(iMap
Tiles
p798
(dp799
g3
g4
sg5
I01
sg6
g7
(I736
I224
I32
I32
tp800
Rp801
sba(iMap
Tiles
p802
(dp803
g3
g4
sg5
I01
sg6
g7
(I768
I224
I32
I32
tp804
Rp805
sba(iMap
Tiles
p806
(dp807
g3
g4
sg5
I01
sg6
g7
(I0
I256
I32
I32
tp808
Rp809
sba(iMap
Tiles
p810
(dp811
g3
g4
sg5
I01
sg6
g7
(I32
I256
I32
I32
tp812
Rp813
sba(iMap
Tiles
p814
(dp815
g3
g4
sg5
I01
sg6
g7
(I64
I256
I32
I32
tp816
Rp817
sba(iMap
Tiles
p818
(dp819
g3
g4
sg5
I01
sg6
g7
(I96
I256
I32
I32
tp820
Rp821
sba(iMap
Tiles
p822
(dp823
g3
g4
sg5
I01
sg6
g7
(I128
I256
I32
I32
tp824
Rp825
sba(iMap
Tiles
p826
(dp827
g3
g4
sg5
I01
sg6
g7
(I160
I256
I32
I32
tp828
Rp829
sba(iMap
Tiles
p830
(dp831
g3
g4
sg5
I01
sg6
g7
(I192
I256
I32
I32
tp832
Rp833
sba(iMap
Tiles
p834
(dp835
g3
g4
sg5
I01
sg6
g7
(I224
I256
I32
I32
tp836
Rp837
sba(iMap
Tiles
p838
(dp839
g3
g4
sg5
I01
sg6
g7
(I256
I256
I32
I32
tp840
Rp841
sba(iMap
Tiles
p842
(dp843
g3
g4
sg5
I01
sg6
g7
(I288
I256
I32
I32
tp844
Rp845
sba(iMap
Tiles
p846
(dp847
g3
g4
sg5
I01
sg6
g7
(I320
I256
I32
I32
tp848
Rp849
sba(iMap
Tiles
p850
(dp851
g3
g4
sg5
I01
sg6
g7
(I352
I256
I32
I32
tp852
Rp853
sba(iMap
Tiles
p854
(dp855
g3
g4
sg5
I01
sg6
g7
(I384
I256
I32
I32
tp856
Rp857
sba(iMap
Tiles
p858
(dp859
g3
g4
sg5
I01
sg6
g7
(I416
I256
I32
I32
tp860
Rp861
sba(iMap
Tiles
p862
(dp863
g3
g4
sg5
I01
sg6
g7
(I448
I256
I32
I32
tp864
Rp865
sba(iMap
Tiles
p866
(dp867
g3
g4
sg5
I01
sg6
g7
(I480
I256
I32
I32
tp868
Rp869
sba(iMap
Tiles
p870
(dp871
g3
g4
sg5
I01
sg6
g7
(I512
I256
I32
I32
tp872
Rp873
sba(iMap
Tiles
p874
(dp875
g3
g4
sg5
I01
sg6
g7
(I544
I256
I32
I32
tp876
Rp877
sba(iMap
Tiles
p878
(dp879
g3
g4
sg5
I01
sg6
g7
(I576
I256
I32
I32
tp880
Rp881
sba(iMap
Tiles
p882
(dp883
g3
g4
sg5
I01
sg6
g7
(I608
I256
I32
I32
tp884
Rp885
sba(iMap
Tiles
p886
(dp887
g3
g4
sg5
I01
sg6
g7
(I640
I256
I32
I32
tp888
Rp889
sba(iMap
Tiles
p890
(dp891
g3
g4
sg5
I01
sg6
g7
(I672
I256
I32
I32
tp892
Rp893
sba(iMap
Tiles
p894
(dp895
g3
g4
sg5
I01
sg6
g7
(I704
I256
I32
I32
tp896
Rp897
sba(iMap
Tiles
p898
(dp899
g3
g4
sg5
I01
sg6
g7
(I736
I256
I32
I32
tp900
Rp901
sba(iMap
Tiles
p902
(dp903
g3
g4
sg5
I01
sg6
g7
(I768
I256
I32
I32
tp904
Rp905
sba(iMap
Tiles
p906
(dp907
g3
g4
sg5
I01
sg6
g7
(I0
I288
I32
I32
tp908
Rp909
sba(iMap
Tiles
p910
(dp911
g3
g4
sg5
I01
sg6
g7
(I32
I288
I32
I32
tp912
Rp913
sba(iMap
Tiles
p914
(dp915
g3
g4
sg5
I01
sg6
g7
(I64
I288
I32
I32
tp916
Rp917
sba(iMap
Tiles
p918
(dp919
g3
g4
sg5
I01
sg6
g7
(I96
I288
I32
I32
tp920
Rp921
sba(iMap
Tiles
p922
(dp923
g3
g4
sg5
I01
sg6
g7
(I128
I288
I32
I32
tp924
Rp925
sba(iMap
Tiles
p926
(dp927
g3
g4
sg5
I01
sg6
g7
(I160
I288
I32
I32
tp928
Rp929
sba(iMap
Tiles
p930
(dp931
g3
g4
sg5
I01
sg6
g7
(I192
I288
I32
I32
tp932
Rp933
sba(iMap
Tiles
p934
(dp935
g3
g4
sg5
I01
sg6
g7
(I224
I288
I32
I32
tp936
Rp937
sba(iMap
Tiles
p938
(dp939
g3
g4
sg5
I01
sg6
g7
(I256
I288
I32
I32
tp940
Rp941
sba(iMap
Tiles
p942
(dp943
g3
g4
sg5
I01
sg6
g7
(I288
I288
I32
I32
tp944
Rp945
sba(iMap
Tiles
p946
(dp947
g3
g4
sg5
I01
sg6
g7
(I320
I288
I32
I32
tp948
Rp949
sba(iMap
Tiles
p950
(dp951
g3
g4
sg5
I01
sg6
g7
(I352
I288
I32
I32
tp952
Rp953
sba(iMap
Tiles
p954
(dp955
g3
g4
sg5
I01
sg6
g7
(I384
I288
I32
I32
tp956
Rp957
sba(iMap
Tiles
p958
(dp959
g3
g4
sg5
I01
sg6
g7
(I416
I288
I32
I32
tp960
Rp961
sba(iMap
Tiles
p962
(dp963
g3
g4
sg5
I01
sg6
g7
(I448
I288
I32
I32
tp964
Rp965
sba(iMap
Tiles
p966
(dp967
g3
g4
sg5
I01
sg6
g7
(I480
I288
I32
I32
tp968
Rp969
sba(iMap
Tiles
p970
(dp971
g3
g4
sg5
I01
sg6
g7
(I512
I288
I32
I32
tp972
Rp973
sba(iMap
Tiles
p974
(dp975
g3
g4
sg5
I01
sg6
g7
(I544
I288
I32
I32
tp976
Rp977
sba(iMap
Tiles
p978
(dp979
g3
g4
sg5
I01
sg6
g7
(I576
I288
I32
I32
tp980
Rp981
sba(iMap
Tiles
p982
(dp983
g3
g4
sg5
I01
sg6
g7
(I608
I288
I32
I32
tp984
Rp985
sba(iMap
Tiles
p986
(dp987
g3
g4
sg5
I01
sg6
g7
(I640
I288
I32
I32
tp988
Rp989
sba(iMap
Tiles
p990
(dp991
g3
g4
sg5
I01
sg6
g7
(I672
I288
I32
I32
tp992
Rp993
sba(iMap
Tiles
p994
(dp995
g3
g4
sg5
I01
sg6
g7
(I704
I288
I32
I32
tp996
Rp997
sba(iMap
Tiles
p998
(dp999
g3
g4
sg5
I01
sg6
g7
(I736
I288
I32
I32
tp1000
Rp1001
sba(iMap
Tiles
p1002
(dp1003
g3
g4
sg5
I01
sg6
g7
(I768
I288
I32
I32
tp1004
Rp1005
sba(iMap
Tiles
p1006
(dp1007
g3
g4
sg5
I01
sg6
g7
(I0
I320
I32
I32
tp1008
Rp1009
sba(iMap
Tiles
p1010
(dp1011
g3
g4
sg5
I01
sg6
g7
(I32
I320
I32
I32
tp1012
Rp1013
sba(iMap
Tiles
p1014
(dp1015
g3
g4
sg5
I01
sg6
g7
(I64
I320
I32
I32
tp1016
Rp1017
sba(iMap
Tiles
p1018
(dp1019
g3
g4
sg5
I01
sg6
g7
(I96
I320
I32
I32
tp1020
Rp1021
sba(iMap
Tiles
p1022
(dp1023
g3
g4
sg5
I01
sg6
g7
(I128
I320
I32
I32
tp1024
Rp1025
sba(iMap
Tiles
p1026
(dp1027
g3
g4
sg5
I01
sg6
g7
(I160
I320
I32
I32
tp1028
Rp1029
sba(iMap
Tiles
p1030
(dp1031
g3
g4
sg5
I01
sg6
g7
(I192
I320
I32
I32
tp1032
Rp1033
sba(iMap
Tiles
p1034
(dp1035
g3
g4
sg5
I01
sg6
g7
(I224
I320
I32
I32
tp1036
Rp1037
sba(iMap
Tiles
p1038
(dp1039
g3
g4
sg5
I01
sg6
g7
(I256
I320
I32
I32
tp1040
Rp1041
sba(iMap
Tiles
p1042
(dp1043
g3
g4
sg5
I01
sg6
g7
(I288
I320
I32
I32
tp1044
Rp1045
sba(iMap
Tiles
p1046
(dp1047
g3
g4
sg5
I01
sg6
g7
(I320
I320
I32
I32
tp1048
Rp1049
sba(iMap
Tiles
p1050
(dp1051
g3
g4
sg5
I01
sg6
g7
(I352
I320
I32
I32
tp1052
Rp1053
sba(iMap
Tiles
p1054
(dp1055
g3
g4
sg5
I01
sg6
g7
(I384
I320
I32
I32
tp1056
Rp1057
sba(iMap
Tiles
p1058
(dp1059
g3
g4
sg5
I01
sg6
g7
(I416
I320
I32
I32
tp1060
Rp1061
sba(iMap
Tiles
p1062
(dp1063
g3
g4
sg5
I01
sg6
g7
(I448
I320
I32
I32
tp1064
Rp1065
sba(iMap
Tiles
p1066
(dp1067
g3
g4
sg5
I01
sg6
g7
(I480
I320
I32
I32
tp1068
Rp1069
sba(iMap
Tiles
p1070
(dp1071
g3
g4
sg5
I01
sg6
g7
(I512
I320
I32
I32
tp1072
Rp1073
sba(iMap
Tiles
p1074
(dp1075
g3
g4
sg5
I01
sg6
g7
(I544
I320
I32
I32
tp1076
Rp1077
sba(iMap
Tiles
p1078
(dp1079
g3
g4
sg5
I01
sg6
g7
(I576
I320
I32
I32
tp1080
Rp1081
sba(iMap
Tiles
p1082
(dp1083
g3
g4
sg5
I01
sg6
g7
(I608
I320
I32
I32
tp1084
Rp1085
sba(iMap
Tiles
p1086
(dp1087
g3
g4
sg5
I01
sg6
g7
(I640
I320
I32
I32
tp1088
Rp1089
sba(iMap
Tiles
p1090
(dp1091
g3
g4
sg5
I01
sg6
g7
(I672
I320
I32
I32
tp1092
Rp1093
sba(iMap
Tiles
p1094
(dp1095
g3
g4
sg5
I01
sg6
g7
(I704
I320
I32
I32
tp1096
Rp1097
sba(iMap
Tiles
p1098
(dp1099
g3
g4
sg5
I01
sg6
g7
(I736
I320
I32
I32
tp1100
Rp1101
sba(iMap
Tiles
p1102
(dp1103
g3
g4
sg5
I01
sg6
g7
(I768
I320
I32
I32
tp1104
Rp1105
sba(iMap
Tiles
p1106
(dp1107
g3
g4
sg5
I01
sg6
g7
(I0
I352
I32
I32
tp1108
Rp1109
sba(iMap
Tiles
p1110
(dp1111
g3
g4
sg5
I01
sg6
g7
(I32
I352
I32
I32
tp1112
Rp1113
sba(iMap
Tiles
p1114
(dp1115
g3
g4
sg5
I01
sg6
g7
(I64
I352
I32
I32
tp1116
Rp1117
sba(iMap
Tiles
p1118
(dp1119
g3
g4
sg5
I01
sg6
g7
(I96
I352
I32
I32
tp1120
Rp1121
sba(iMap
Tiles
p1122
(dp1123
g3
g4
sg5
I01
sg6
g7
(I128
I352
I32
I32
tp1124
Rp1125
sba(iMap
Tiles
p1126
(dp1127
g3
g4
sg5
I01
sg6
g7
(I160
I352
I32
I32
tp1128
Rp1129
sba(iMap
Tiles
p1130
(dp1131
g3
g4
sg5
I01
sg6
g7
(I192
I352
I32
I32
tp1132
Rp1133
sba(iMap
Tiles
p1134
(dp1135
g3
g4
sg5
I01
sg6
g7
(I224
I352
I32
I32
tp1136
Rp1137
sba(iMap
Tiles
p1138
(dp1139
g3
g4
sg5
I01
sg6
g7
(I256
I352
I32
I32
tp1140
Rp1141
sba(iMap
Tiles
p1142
(dp1143
g3
g4
sg5
I01
sg6
g7
(I288
I352
I32
I32
tp1144
Rp1145
sba(iMap
Tiles
p1146
(dp1147
g3
g4
sg5
I01
sg6
g7
(I320
I352
I32
I32
tp1148
Rp1149
sba(iMap
Tiles
p1150
(dp1151
g3
g4
sg5
I01
sg6
g7
(I352
I352
I32
I32
tp1152
Rp1153
sba(iMap
Tiles
p1154
(dp1155
g3
g4
sg5
I01
sg6
g7
(I384
I352
I32
I32
tp1156
Rp1157
sba(iMap
Tiles
p1158
(dp1159
g3
g4
sg5
I01
sg6
g7
(I416
I352
I32
I32
tp1160
Rp1161
sba(iMap
Tiles
p1162
(dp1163
g3
g4
sg5
I01
sg6
g7
(I448
I352
I32
I32
tp1164
Rp1165
sba(iMap
Tiles
p1166
(dp1167
g3
g4
sg5
I01
sg6
g7
(I480
I352
I32
I32
tp1168
Rp1169
sba(iMap
Tiles
p1170
(dp1171
g3
g4
sg5
I01
sg6
g7
(I512
I352
I32
I32
tp1172
Rp1173
sba(iMap
Tiles
p1174
(dp1175
g3
g4
sg5
I01
sg6
g7
(I544
I352
I32
I32
tp1176
Rp1177
sba(iMap
Tiles
p1178
(dp1179
g3
g4
sg5
I01
sg6
g7
(I576
I352
I32
I32
tp1180
Rp1181
sba(iMap
Tiles
p1182
(dp1183
g3
g4
sg5
I01
sg6
g7
(I608
I352
I32
I32
tp1184
Rp1185
sba(iMap
Tiles
p1186
(dp1187
g3
g4
sg5
I01
sg6
g7
(I640
I352
I32
I32
tp1188
Rp1189
sba(iMap
Tiles
p1190
(dp1191
g3
g4
sg5
I01
sg6
g7
(I672
I352
I32
I32
tp1192
Rp1193
sba(iMap
Tiles
p1194
(dp1195
g3
g4
sg5
I01
sg6
g7
(I704
I352
I32
I32
tp1196
Rp1197
sba(iMap
Tiles
p1198
(dp1199
g3
g4
sg5
I01
sg6
g7
(I736
I352
I32
I32
tp1200
Rp1201
sba(iMap
Tiles
p1202
(dp1203
g3
g4
sg5
I01
sg6
g7
(I768
I352
I32
I32
tp1204
Rp1205
sba(iMap
Tiles
p1206
(dp1207
g3
g4
sg5
I01
sg6
g7
(I0
I384
I32
I32
tp1208
Rp1209
sba(iMap
Tiles
p1210
(dp1211
g3
g4
sg5
I01
sg6
g7
(I32
I384
I32
I32
tp1212
Rp1213
sba(iMap
Tiles
p1214
(dp1215
g3
g4
sg5
I01
sg6
g7
(I64
I384
I32
I32
tp1216
Rp1217
sba(iMap
Tiles
p1218
(dp1219
g3
g4
sg5
I01
sg6
g7
(I96
I384
I32
I32
tp1220
Rp1221
sba(iMap
Tiles
p1222
(dp1223
g3
g4
sg5
I01
sg6
g7
(I128
I384
I32
I32
tp1224
Rp1225
sba(iMap
Tiles
p1226
(dp1227
g3
g4
sg5
I01
sg6
g7
(I160
I384
I32
I32
tp1228
Rp1229
sba(iMap
Tiles
p1230
(dp1231
g3
g4
sg5
I01
sg6
g7
(I192
I384
I32
I32
tp1232
Rp1233
sba(iMap
Tiles
p1234
(dp1235
g3
g4
sg5
I01
sg6
g7
(I224
I384
I32
I32
tp1236
Rp1237
sba(iMap
Tiles
p1238
(dp1239
g3
g4
sg5
I01
sg6
g7
(I256
I384
I32
I32
tp1240
Rp1241
sba(iMap
Tiles
p1242
(dp1243
g3
g4
sg5
I01
sg6
g7
(I288
I384
I32
I32
tp1244
Rp1245
sba(iMap
Tiles
p1246
(dp1247
g3
g4
sg5
I01
sg6
g7
(I320
I384
I32
I32
tp1248
Rp1249
sba(iMap
Tiles
p1250
(dp1251
g3
g4
sg5
I01
sg6
g7
(I352
I384
I32
I32
tp1252
Rp1253
sba(iMap
Tiles
p1254
(dp1255
g3
g4
sg5
I01
sg6
g7
(I384
I384
I32
I32
tp1256
Rp1257
sba(iMap
Tiles
p1258
(dp1259
g3
g4
sg5
I01
sg6
g7
(I416
I384
I32
I32
tp1260
Rp1261
sba(iMap
Tiles
p1262
(dp1263
g3
g4
sg5
I01
sg6
g7
(I448
I384
I32
I32
tp1264
Rp1265
sba(iMap
Tiles
p1266
(dp1267
g3
g4
sg5
I01
sg6
g7
(I480
I384
I32
I32
tp1268
Rp1269
sba(iMap
Tiles
p1270
(dp1271
g3
g4
sg5
I01
sg6
g7
(I512
I384
I32
I32
tp1272
Rp1273
sba(iMap
Tiles
p1274
(dp1275
g3
g4
sg5
I01
sg6
g7
(I544
I384
I32
I32
tp1276
Rp1277
sba(iMap
Tiles
p1278
(dp1279
g3
g4
sg5
I01
sg6
g7
(I576
I384
I32
I32
tp1280
Rp1281
sba(iMap
Tiles
p1282
(dp1283
g3
g4
sg5
I01
sg6
g7
(I608
I384
I32
I32
tp1284
Rp1285
sba(iMap
Tiles
p1286
(dp1287
g3
g4
sg5
I01
sg6
g7
(I640
I384
I32
I32
tp1288
Rp1289
sba(iMap
Tiles
p1290
(dp1291
g3
g4
sg5
I01
sg6
g7
(I672
I384
I32
I32
tp1292
Rp1293
sba(iMap
Tiles
p1294
(dp1295
g3
g4
sg5
I01
sg6
g7
(I704
I384
I32
I32
tp1296
Rp1297
sba(iMap
Tiles
p1298
(dp1299
g3
g4
sg5
I01
sg6
g7
(I736
I384
I32
I32
tp1300
Rp1301
sba(iMap
Tiles
p1302
(dp1303
g3
g4
sg5
I01
sg6
g7
(I768
I384
I32
I32
tp1304
Rp1305
sba(iMap
Tiles
p1306
(dp1307
g3
g4
sg5
I01
sg6
g7
(I0
I416
I32
I32
tp1308
Rp1309
sba(iMap
Tiles
p1310
(dp1311
g3
g4
sg5
I01
sg6
g7
(I32
I416
I32
I32
tp1312
Rp1313
sba(iMap
Tiles
p1314
(dp1315
g3
g4
sg5
I01
sg6
g7
(I64
I416
I32
I32
tp1316
Rp1317
sba(iMap
Tiles
p1318
(dp1319
g3
g4
sg5
I01
sg6
g7
(I96
I416
I32
I32
tp1320
Rp1321
sba(iMap
Tiles
p1322
(dp1323
g3
g4
sg5
I01
sg6
g7
(I128
I416
I32
I32
tp1324
Rp1325
sba(iMap
Tiles
p1326
(dp1327
g3
g4
sg5
I01
sg6
g7
(I160
I416
I32
I32
tp1328
Rp1329
sba(iMap
Tiles
p1330
(dp1331
g3
g4
sg5
I01
sg6
g7
(I192
I416
I32
I32
tp1332
Rp1333
sba(iMap
Tiles
p1334
(dp1335
g3
g4
sg5
I01
sg6
g7
(I224
I416
I32
I32
tp1336
Rp1337
sba(iMap
Tiles
p1338
(dp1339
g3
g4
sg5
I01
sg6
g7
(I256
I416
I32
I32
tp1340
Rp1341
sba(iMap
Tiles
p1342
(dp1343
g3
g4
sg5
I01
sg6
g7
(I288
I416
I32
I32
tp1344
Rp1345
sba(iMap
Tiles
p1346
(dp1347
g3
g4
sg5
I01
sg6
g7
(I320
I416
I32
I32
tp1348
Rp1349
sba(iMap
Tiles
p1350
(dp1351
g3
g4
sg5
I01
sg6
g7
(I352
I416
I32
I32
tp1352
Rp1353
sba(iMap
Tiles
p1354
(dp1355
g3
g4
sg5
I01
sg6
g7
(I384
I416
I32
I32
tp1356
Rp1357
sba(iMap
Tiles
p1358
(dp1359
g3
g4
sg5
I01
sg6
g7
(I416
I416
I32
I32
tp1360
Rp1361
sba(iMap
Tiles
p1362
(dp1363
g3
g4
sg5
I01
sg6
g7
(I448
I416
I32
I32
tp1364
Rp1365
sba(iMap
Tiles
p1366
(dp1367
g3
g4
sg5
I01
sg6
g7
(I480
I416
I32
I32
tp1368
Rp1369
sba(iMap
Tiles
p1370
(dp1371
g3
g4
sg5
I01
sg6
g7
(I512
I416
I32
I32
tp1372
Rp1373
sba(iMap
Tiles
p1374
(dp1375
g3
g4
sg5
I01
sg6
g7
(I544
I416
I32
I32
tp1376
Rp1377
sba(iMap
Tiles
p1378
(dp1379
g3
g4
sg5
I01
sg6
g7
(I576
I416
I32
I32
tp1380
Rp1381
sba(iMap
Tiles
p1382
(dp1383
g3
g4
sg5
I01
sg6
g7
(I608
I416
I32
I32
tp1384
Rp1385
sba(iMap
Tiles
p1386
(dp1387
g3
g4
sg5
I01
sg6
g7
(I640
I416
I32
I32
tp1388
Rp1389
sba(iMap
Tiles
p1390
(dp1391
g3
g4
sg5
I01
sg6
g7
(I672
I416
I32
I32
tp1392
Rp1393
sba(iMap
Tiles
p1394
(dp1395
g3
g4
sg5
I01
sg6
g7
(I704
I416
I32
I32
tp1396
Rp1397
sba(iMap
Tiles
p1398
(dp1399
g3
g4
sg5
I01
sg6
g7
(I736
I416
I32
I32
tp1400
Rp1401
sba(iMap
Tiles
p1402
(dp1403
g3
g4
sg5
I01
sg6
g7
(I768
I416
I32
I32
tp1404
Rp1405
sba(iMap
Tiles
p1406
(dp1407
g3
g4
sg5
I01
sg6
g7
(I0
I448
I32
I32
tp1408
Rp1409
sba(iMap
Tiles
p1410
(dp1411
g3
g4
sg5
I01
sg6
g7
(I32
I448
I32
I32
tp1412
Rp1413
sba(iMap
Tiles
p1414
(dp1415
g3
g4
sg5
I01
sg6
g7
(I64
I448
I32
I32
tp1416
Rp1417
sba(iMap
Tiles
p1418
(dp1419
g3
g4
sg5
I01
sg6
g7
(I96
I448
I32
I32
tp1420
Rp1421
sba(iMap
Tiles
p1422
(dp1423
g3
g4
sg5
I01
sg6
g7
(I128
I448
I32
I32
tp1424
Rp1425
sba(iMap
Tiles
p1426
(dp1427
g3
g4
sg5
I01
sg6
g7
(I160
I448
I32
I32
tp1428
Rp1429
sba(iMap
Tiles
p1430
(dp1431
g3
g4
sg5
I01
sg6
g7
(I192
I448
I32
I32
tp1432
Rp1433
sba(iMap
Tiles
p1434
(dp1435
g3
g4
sg5
I01
sg6
g7
(I224
I448
I32
I32
tp1436
Rp1437
sba(iMap
Tiles
p1438
(dp1439
g3
g4
sg5
I01
sg6
g7
(I256
I448
I32
I32
tp1440
Rp1441
sba(iMap
Tiles
p1442
(dp1443
g3
g4
sg5
I01
sg6
g7
(I288
I448
I32
I32
tp1444
Rp1445
sba(iMap
Tiles
p1446
(dp1447
g3
g4
sg5
I01
sg6
g7
(I320
I448
I32
I32
tp1448
Rp1449
sba(iMap
Tiles
p1450
(dp1451
g3
g4
sg5
I01
sg6
g7
(I352
I448
I32
I32
tp1452
Rp1453
sba(iMap
Tiles
p1454
(dp1455
g3
g4
sg5
I01
sg6
g7
(I384
I448
I32
I32
tp1456
Rp1457
sba(iMap
Tiles
p1458
(dp1459
g3
g4
sg5
I01
sg6
g7
(I416
I448
I32
I32
tp1460
Rp1461
sba(iMap
Tiles
p1462
(dp1463
g3
g4
sg5
I01
sg6
g7
(I448
I448
I32
I32
tp1464
Rp1465
sba(iMap
Tiles
p1466
(dp1467
g3
g4
sg5
I01
sg6
g7
(I480
I448
I32
I32
tp1468
Rp1469
sba(iMap
Tiles
p1470
(dp1471
g3
g4
sg5
I01
sg6
g7
(I512
I448
I32
I32
tp1472
Rp1473
sba(iMap
Tiles
p1474
(dp1475
g3
g4
sg5
I01
sg6
g7
(I544
I448
I32
I32
tp1476
Rp1477
sba(iMap
Tiles
p1478
(dp1479
g3
g4
sg5
I01
sg6
g7
(I576
I448
I32
I32
tp1480
Rp1481
sba(iMap
Tiles
p1482
(dp1483
g3
g4
sg5
I01
sg6
g7
(I608
I448
I32
I32
tp1484
Rp1485
sba(iMap
Tiles
p1486
(dp1487
g3
g4
sg5
I01
sg6
g7
(I640
I448
I32
I32
tp1488
Rp1489
sba(iMap
Tiles
p1490
(dp1491
g3
g4
sg5
I01
sg6
g7
(I672
I448
I32
I32
tp1492
Rp1493
sba(iMap
Tiles
p1494
(dp1495
g3
g4
sg5
I01
sg6
g7
(I704
I448
I32
I32
tp1496
Rp1497
sba(iMap
Tiles
p1498
(dp1499
g3
g4
sg5
I01
sg6
g7
(I736
I448
I32
I32
tp1500
Rp1501
sba(iMap
Tiles
p1502
(dp1503
g3
g4
sg5
I01
sg6
g7
(I768
I448
I32
I32
tp1504
Rp1505
sba(iMap
Tiles
p1506
(dp1507
g3
g4
sg5
I01
sg6
g7
(I0
I480
I32
I32
tp1508
Rp1509
sba(iMap
Tiles
p1510
(dp1511
g3
g4
sg5
I01
sg6
g7
(I32
I480
I32
I32
tp1512
Rp1513
sba(iMap
Tiles
p1514
(dp1515
g3
g4
sg5
I01
sg6
g7
(I64
I480
I32
I32
tp1516
Rp1517
sba(iMap
Tiles
p1518
(dp1519
g3
g4
sg5
I01
sg6
g7
(I96
I480
I32
I32
tp1520
Rp1521
sba(iMap
Tiles
p1522
(dp1523
g3
g4
sg5
I01
sg6
g7
(I128
I480
I32
I32
tp1524
Rp1525
sba(iMap
Tiles
p1526
(dp1527
g3
g4
sg5
I01
sg6
g7
(I160
I480
I32
I32
tp1528
Rp1529
sba(iMap
Tiles
p1530
(dp1531
g3
g4
sg5
I01
sg6
g7
(I192
I480
I32
I32
tp1532
Rp1533
sba(iMap
Tiles
p1534
(dp1535
g3
g4
sg5
I01
sg6
g7
(I224
I480
I32
I32
tp1536
Rp1537
sba(iMap
Tiles
p1538
(dp1539
g3
g4
sg5
I01
sg6
g7
(I256
I480
I32
I32
tp1540
Rp1541
sba(iMap
Tiles
p1542
(dp1543
g3
g4
sg5
I01
sg6
g7
(I288
I480
I32
I32
tp1544
Rp1545
sba(iMap
Tiles
p1546
(dp1547
g3
g4
sg5
I01
sg6
g7
(I320
I480
I32
I32
tp1548
Rp1549
sba(iMap
Tiles
p1550
(dp1551
g3
g4
sg5
I01
sg6
g7
(I352
I480
I32
I32
tp1552
Rp1553
sba(iMap
Tiles
p1554
(dp1555
g3
g4
sg5
I01
sg6
g7
(I384
I480
I32
I32
tp1556
Rp1557
sba(iMap
Tiles
p1558
(dp1559
g3
g4
sg5
I01
sg6
g7
(I416
I480
I32
I32
tp1560
Rp1561
sba(iMap
Tiles
p1562
(dp1563
g3
g4
sg5
I01
sg6
g7
(I448
I480
I32
I32
tp1564
Rp1565
sba(iMap
Tiles
p1566
(dp1567
g3
g4
sg5
I01
sg6
g7
(I480
I480
I32
I32
tp1568
Rp1569
sba(iMap
Tiles
p1570
(dp1571
g3
g4
sg5
I01
sg6
g7
(I512
I480
I32
I32
tp1572
Rp1573
sba(iMap
Tiles
p1574
(dp1575
g3
g4
sg5
I01
sg6
g7
(I544
I480
I32
I32
tp1576
Rp1577
sba(iMap
Tiles
p1578
(dp1579
g3
g4
sg5
I01
sg6
g7
(I576
I480
I32
I32
tp1580
Rp1581
sba(iMap
Tiles
p1582
(dp1583
g3
g4
sg5
I01
sg6
g7
(I608
I480
I32
I32
tp1584
Rp1585
sba(iMap
Tiles
p1586
(dp1587
g3
g4
sg5
I01
sg6
g7
(I640
I480
I32
I32
tp1588
Rp1589
sba(iMap
Tiles
p1590
(dp1591
g3
g4
sg5
I01
sg6
g7
(I672
I480
I32
I32
tp1592
Rp1593
sba(iMap
Tiles
p1594
(dp1595
g3
g4
sg5
I01
sg6
g7
(I704
I480
I32
I32
tp1596
Rp1597
sba(iMap
Tiles
p1598
(dp1599
g3
g4
sg5
I01
sg6
g7
(I736
I480
I32
I32
tp1600
Rp1601
sba(iMap
Tiles
p1602
(dp1603
g3
g4
sg5
I01
sg6
g7
(I768
I480
I32
I32
tp1604
Rp1605
sba(iMap
Tiles
p1606
(dp1607
g3
g4
sg5
I01
sg6
g7
(I0
I512
I32
I32
tp1608
Rp1609
sba(iMap
Tiles
p1610
(dp1611
g3
g4
sg5
I01
sg6
g7
(I32
I512
I32
I32
tp1612
Rp1613
sba(iMap
Tiles
p1614
(dp1615
g3
g4
sg5
I01
sg6
g7
(I64
I512
I32
I32
tp1616
Rp1617
sba(iMap
Tiles
p1618
(dp1619
g3
g4
sg5
I01
sg6
g7
(I96
I512
I32
I32
tp1620
Rp1621
sba(iMap
Tiles
p1622
(dp1623
g3
g4
sg5
I01
sg6
g7
(I128
I512
I32
I32
tp1624
Rp1625
sba(iMap
Tiles
p1626
(dp1627
g3
g4
sg5
I01
sg6
g7
(I160
I512
I32
I32
tp1628
Rp1629
sba(iMap
Tiles
p1630
(dp1631
g3
g4
sg5
I01
sg6
g7
(I192
I512
I32
I32
tp1632
Rp1633
sba(iMap
Tiles
p1634
(dp1635
g3
g4
sg5
I01
sg6
g7
(I224
I512
I32
I32
tp1636
Rp1637
sba(iMap
Tiles
p1638
(dp1639
g3
g4
sg5
I01
sg6
g7
(I256
I512
I32
I32
tp1640
Rp1641
sba(iMap
Tiles
p1642
(dp1643
g3
g4
sg5
I01
sg6
g7
(I288
I512
I32
I32
tp1644
Rp1645
sba(iMap
Tiles
p1646
(dp1647
g3
g4
sg5
I01
sg6
g7
(I320
I512
I32
I32
tp1648
Rp1649
sba(iMap
Tiles
p1650
(dp1651
g3
g4
sg5
I01
sg6
g7
(I352
I512
I32
I32
tp1652
Rp1653
sba(iMap
Tiles
p1654
(dp1655
g3
g4
sg5
I01
sg6
g7
(I384
I512
I32
I32
tp1656
Rp1657
sba(iMap
Tiles
p1658
(dp1659
g3
g4
sg5
I01
sg6
g7
(I416
I512
I32
I32
tp1660
Rp1661
sba(iMap
Tiles
p1662
(dp1663
g3
g4
sg5
I01
sg6
g7
(I448
I512
I32
I32
tp1664
Rp1665
sba(iMap
Tiles
p1666
(dp1667
g3
g4
sg5
I01
sg6
g7
(I480
I512
I32
I32
tp1668
Rp1669
sba(iMap
Tiles
p1670
(dp1671
g3
g4
sg5
I01
sg6
g7
(I512
I512
I32
I32
tp1672
Rp1673
sba(iMap
Tiles
p1674
(dp1675
g3
g4
sg5
I01
sg6
g7
(I544
I512
I32
I32
tp1676
Rp1677
sba(iMap
Tiles
p1678
(dp1679
g3
g4
sg5
I01
sg6
g7
(I576
I512
I32
I32
tp1680
Rp1681
sba(iMap
Tiles
p1682
(dp1683
g3
g4
sg5
I01
sg6
g7
(I608
I512
I32
I32
tp1684
Rp1685
sba(iMap
Tiles
p1686
(dp1687
g3
g4
sg5
I01
sg6
g7
(I640
I512
I32
I32
tp1688
Rp1689
sba(iMap
Tiles
p1690
(dp1691
g3
g4
sg5
I01
sg6
g7
(I672
I512
I32
I32
tp1692
Rp1693
sba(iMap
Tiles
p1694
(dp1695
g3
g4
sg5
I01
sg6
g7
(I704
I512
I32
I32
tp1696
Rp1697
sba(iMap
Tiles
p1698
(dp1699
g3
g4
sg5
I01
sg6
g7
(I736
I512
I32
I32
tp1700
Rp1701
sba(iMap
Tiles
p1702
(dp1703
g3
g4
sg5
I01
sg6
g7
(I768
I512
I32
I32
tp1704
Rp1705
sba(iMap
Tiles
p1706
(dp1707
g3
g4
sg5
I01
sg6
g7
(I0
I544
I32
I32
tp1708
Rp1709
sba(iMap
Tiles
p1710
(dp1711
g3
g4
sg5
I01
sg6
g7
(I32
I544
I32
I32
tp1712
Rp1713
sba(iMap
Tiles
p1714
(dp1715
g3
g4
sg5
I01
sg6
g7
(I64
I544
I32
I32
tp1716
Rp1717
sba(iMap
Tiles
p1718
(dp1719
g3
g4
sg5
I01
sg6
g7
(I96
I544
I32
I32
tp1720
Rp1721
sba(iMap
Tiles
p1722
(dp1723
g3
g4
sg5
I01
sg6
g7
(I128
I544
I32
I32
tp1724
Rp1725
sba(iMap
Tiles
p1726
(dp1727
g3
g4
sg5
I01
sg6
g7
(I160
I544
I32
I32
tp1728
Rp1729
sba(iMap
Tiles
p1730
(dp1731
g3
g4
sg5
I01
sg6
g7
(I192
I544
I32
I32
tp1732
Rp1733
sba(iMap
Tiles
p1734
(dp1735
g3
g4
sg5
I01
sg6
g7
(I224
I544
I32
I32
tp1736
Rp1737
sba(iMap
Tiles
p1738
(dp1739
g3
g4
sg5
I01
sg6
g7
(I256
I544
I32
I32
tp1740
Rp1741
sba(iMap
Tiles
p1742
(dp1743
g3
g4
sg5
I01
sg6
g7
(I288
I544
I32
I32
tp1744
Rp1745
sba(iMap
Tiles
p1746
(dp1747
g3
g4
sg5
I01
sg6
g7
(I320
I544
I32
I32
tp1748
Rp1749
sba(iMap
Tiles
p1750
(dp1751
g3
g4
sg5
I01
sg6
g7
(I352
I544
I32
I32
tp1752
Rp1753
sba(iMap
Tiles
p1754
(dp1755
g3
g4
sg5
I01
sg6
g7
(I384
I544
I32
I32
tp1756
Rp1757
sba(iMap
Tiles
p1758
(dp1759
g3
g4
sg5
I01
sg6
g7
(I416
I544
I32
I32
tp1760
Rp1761
sba(iMap
Tiles
p1762
(dp1763
g3
g4
sg5
I01
sg6
g7
(I448
I544
I32
I32
tp1764
Rp1765
sba(iMap
Tiles
p1766
(dp1767
g3
g4
sg5
I01
sg6
g7
(I480
I544
I32
I32
tp1768
Rp1769
sba(iMap
Tiles
p1770
(dp1771
g3
g4
sg5
I01
sg6
g7
(I512
I544
I32
I32
tp1772
Rp1773
sba(iMap
Tiles
p1774
(dp1775
g3
g4
sg5
I01
sg6
g7
(I544
I544
I32
I32
tp1776
Rp1777
sba(iMap
Tiles
p1778
(dp1779
g3
g4
sg5
I01
sg6
g7
(I576
I544
I32
I32
tp1780
Rp1781
sba(iMap
Tiles
p1782
(dp1783
g3
g4
sg5
I01
sg6
g7
(I608
I544
I32
I32
tp1784
Rp1785
sba(iMap
Tiles
p1786
(dp1787
g3
g4
sg5
I01
sg6
g7
(I640
I544
I32
I32
tp1788
Rp1789
sba(iMap
Tiles
p1790
(dp1791
g3
g4
sg5
I01
sg6
g7
(I672
I544
I32
I32
tp1792
Rp1793
sba(iMap
Tiles
p1794
(dp1795
g3
g4
sg5
I01
sg6
g7
(I704
I544
I32
I32
tp1796
Rp1797
sba(iMap
Tiles
p1798
(dp1799
g3
g4
sg5
I01
sg6
g7
(I736
I544
I32
I32
tp1800
Rp1801
sba(iMap
Tiles
p1802
(dp1803
g3
g4
sg5
I01
sg6
g7
(I768
I544
I32
I32
tp1804
Rp1805
sba(iMap
Tiles
p1806
(dp1807
g3
g4
sg5
I01
sg6
g7
(I0
I576
I32
I32
tp1808
Rp1809
sba(iMap
Tiles
p1810
(dp1811
g3
g4
sg5
I01
sg6
g7
(I32
I576
I32
I32
tp1812
Rp1813
sba(iMap
Tiles
p1814
(dp1815
g3
g4
sg5
I01
sg6
g7
(I64
I576
I32
I32
tp1816
Rp1817
sba(iMap
Tiles
p1818
(dp1819
g3
g4
sg5
I01
sg6
g7
(I96
I576
I32
I32
tp1820
Rp1821
sba(iMap
Tiles
p1822
(dp1823
g3
g4
sg5
I01
sg6
g7
(I128
I576
I32
I32
tp1824
Rp1825
sba(iMap
Tiles
p1826
(dp1827
g3
g4
sg5
I01
sg6
g7
(I160
I576
I32
I32
tp1828
Rp1829
sba(iMap
Tiles
p1830
(dp1831
g3
g4
sg5
I01
sg6
g7
(I192
I576
I32
I32
tp1832
Rp1833
sba(iMap
Tiles
p1834
(dp1835
g3
g4
sg5
I01
sg6
g7
(I224
I576
I32
I32
tp1836
Rp1837
sba(iMap
Tiles
p1838
(dp1839
g3
g4
sg5
I01
sg6
g7
(I256
I576
I32
I32
tp1840
Rp1841
sba(iMap
Tiles
p1842
(dp1843
g3
g4
sg5
I01
sg6
g7
(I288
I576
I32
I32
tp1844
Rp1845
sba(iMap
Tiles
p1846
(dp1847
g3
g4
sg5
I01
sg6
g7
(I320
I576
I32
I32
tp1848
Rp1849
sba(iMap
Tiles
p1850
(dp1851
g3
g4
sg5
I01
sg6
g7
(I352
I576
I32
I32
tp1852
Rp1853
sba(iMap
Tiles
p1854
(dp1855
g3
g4
sg5
I01
sg6
g7
(I384
I576
I32
I32
tp1856
Rp1857
sba(iMap
Tiles
p1858
(dp1859
g3
g4
sg5
I01
sg6
g7
(I416
I576
I32
I32
tp1860
Rp1861
sba(iMap
Tiles
p1862
(dp1863
g3
g4
sg5
I01
sg6
g7
(I448
I576
I32
I32
tp1864
Rp1865
sba(iMap
Tiles
p1866
(dp1867
g3
g4
sg5
I01
sg6
g7
(I480
I576
I32
I32
tp1868
Rp1869
sba(iMap
Tiles
p1870
(dp1871
g3
g4
sg5
I01
sg6
g7
(I512
I576
I32
I32
tp1872
Rp1873
sba(iMap
Tiles
p1874
(dp1875
g3
g4
sg5
I01
sg6
g7
(I544
I576
I32
I32
tp1876
Rp1877
sba(iMap
Tiles
p1878
(dp1879
g3
g4
sg5
I01
sg6
g7
(I576
I576
I32
I32
tp1880
Rp1881
sba(iMap
Tiles
p1882
(dp1883
g3
g4
sg5
I01
sg6
g7
(I608
I576
I32
I32
tp1884
Rp1885
sba(iMap
Tiles
p1886
(dp1887
g3
g4
sg5
I01
sg6
g7
(I640
I576
I32
I32
tp1888
Rp1889
sba(iMap
Tiles
p1890
(dp1891
g3
g4
sg5
I01
sg6
g7
(I672
I576
I32
I32
tp1892
Rp1893
sba(iMap
Tiles
p1894
(dp1895
g3
g4
sg5
I01
sg6
g7
(I704
I576
I32
I32
tp1896
Rp1897
sba(iMap
Tiles
p1898
(dp1899
g3
g4
sg5
I01
sg6
g7
(I736
I576
I32
I32
tp1900
Rp1901
sba(iMap
Tiles
p1902
(dp1903
g3
g4
sg5
I01
sg6
g7
(I768
I576
I32
I32
tp1904
Rp1905
sba(iMap
Tiles
p1906
(dp1907
g3
g4
sg5
I01
sg6
g7
(I0
I608
I32
I32
tp1908
Rp1909
sba(iMap
Tiles
p1910
(dp1911
g3
g4
sg5
I01
sg6
g7
(I32
I608
I32
I32
tp1912
Rp1913
sba(iMap
Tiles
p1914
(dp1915
g3
g4
sg5
I01
sg6
g7
(I64
I608
I32
I32
tp1916
Rp1917
sba(iMap
Tiles
p1918
(dp1919
g3
g4
sg5
I01
sg6
g7
(I96
I608
I32
I32
tp1920
Rp1921
sba(iMap
Tiles
p1922
(dp1923
g3
g4
sg5
I01
sg6
g7
(I128
I608
I32
I32
tp1924
Rp1925
sba(iMap
Tiles
p1926
(dp1927
g3
g4
sg5
I01
sg6
g7
(I160
I608
I32
I32
tp1928
Rp1929
sba(iMap
Tiles
p1930
(dp1931
g3
g4
sg5
I01
sg6
g7
(I192
I608
I32
I32
tp1932
Rp1933
sba(iMap
Tiles
p1934
(dp1935
g3
g4
sg5
I01
sg6
g7
(I224
I608
I32
I32
tp1936
Rp1937
sba(iMap
Tiles
p1938
(dp1939
g3
g4
sg5
I01
sg6
g7
(I256
I608
I32
I32
tp1940
Rp1941
sba(iMap
Tiles
p1942
(dp1943
g3
g4
sg5
I01
sg6
g7
(I288
I608
I32
I32
tp1944
Rp1945
sba(iMap
Tiles
p1946
(dp1947
g3
g4
sg5
I01
sg6
g7
(I320
I608
I32
I32
tp1948
Rp1949
sba(iMap
Tiles
p1950
(dp1951
g3
g4
sg5
I01
sg6
g7
(I352
I608
I32
I32
tp1952
Rp1953
sba(iMap
Tiles
p1954
(dp1955
g3
g4
sg5
I01
sg6
g7
(I384
I608
I32
I32
tp1956
Rp1957
sba(iMap
Tiles
p1958
(dp1959
g3
g4
sg5
I01
sg6
g7
(I416
I608
I32
I32
tp1960
Rp1961
sba(iMap
Tiles
p1962
(dp1963
g3
g4
sg5
I01
sg6
g7
(I448
I608
I32
I32
tp1964
Rp1965
sba(iMap
Tiles
p1966
(dp1967
g3
g4
sg5
I01
sg6
g7
(I480
I608
I32
I32
tp1968
Rp1969
sba(iMap
Tiles
p1970
(dp1971
g3
g4
sg5
I01
sg6
g7
(I512
I608
I32
I32
tp1972
Rp1973
sba(iMap
Tiles
p1974
(dp1975
g3
g4
sg5
I01
sg6
g7
(I544
I608
I32
I32
tp1976
Rp1977
sba(iMap
Tiles
p1978
(dp1979
g3
g4
sg5
I01
sg6
g7
(I576
I608
I32
I32
tp1980
Rp1981
sba(iMap
Tiles
p1982
(dp1983
g3
g4
sg5
I01
sg6
g7
(I608
I608
I32
I32
tp1984
Rp1985
sba(iMap
Tiles
p1986
(dp1987
g3
g4
sg5
I01
sg6
g7
(I640
I608
I32
I32
tp1988
Rp1989
sba(iMap
Tiles
p1990
(dp1991
g3
g4
sg5
I01
sg6
g7
(I672
I608
I32
I32
tp1992
Rp1993
sba(iMap
Tiles
p1994
(dp1995
g3
g4
sg5
I01
sg6
g7
(I704
I608
I32
I32
tp1996
Rp1997
sba(iMap
Tiles
p1998
(dp1999
g3
g4
sg5
I01
sg6
g7
(I736
I608
I32
I32
tp2000
Rp2001
sba(iMap
Tiles
p2002
(dp2003
g3
g4
sg5
I01
sg6
g7
(I768
I608
I32
I32
tp2004
Rp2005
sba(iMap
Tiles
p2006
(dp2007
g3
g4
sg5
I01
sg6
g7
(I0
I640
I32
I32
tp2008
Rp2009
sba(iMap
Tiles
p2010
(dp2011
g3
g4
sg5
I01
sg6
g7
(I32
I640
I32
I32
tp2012
Rp2013
sba(iMap
Tiles
p2014
(dp2015
g3
g4
sg5
I01
sg6
g7
(I64
I640
I32
I32
tp2016
Rp2017
sba(iMap
Tiles
p2018
(dp2019
g3
g4
sg5
I01
sg6
g7
(I96
I640
I32
I32
tp2020
Rp2021
sba(iMap
Tiles
p2022
(dp2023
g3
g4
sg5
I01
sg6
g7
(I128
I640
I32
I32
tp2024
Rp2025
sba(iMap
Tiles
p2026
(dp2027
g3
g4
sg5
I01
sg6
g7
(I160
I640
I32
I32
tp2028
Rp2029
sba(iMap
Tiles
p2030
(dp2031
g3
g4
sg5
I01
sg6
g7
(I192
I640
I32
I32
tp2032
Rp2033
sba(iMap
Tiles
p2034
(dp2035
g3
g4
sg5
I01
sg6
g7
(I224
I640
I32
I32
tp2036
Rp2037
sba(iMap
Tiles
p2038
(dp2039
g3
g4
sg5
I01
sg6
g7
(I256
I640
I32
I32
tp2040
Rp2041
sba(iMap
Tiles
p2042
(dp2043
g3
g4
sg5
I01
sg6
g7
(I288
I640
I32
I32
tp2044
Rp2045
sba(iMap
Tiles
p2046
(dp2047
g3
g4
sg5
I01
sg6
g7
(I320
I640
I32
I32
tp2048
Rp2049
sba(iMap
Tiles
p2050
(dp2051
g3
g4
sg5
I01
sg6
g7
(I352
I640
I32
I32
tp2052
Rp2053
sba(iMap
Tiles
p2054
(dp2055
g3
g4
sg5
I01
sg6
g7
(I384
I640
I32
I32
tp2056
Rp2057
sba(iMap
Tiles
p2058
(dp2059
g3
g4
sg5
I01
sg6
g7
(I416
I640
I32
I32
tp2060
Rp2061
sba(iMap
Tiles
p2062
(dp2063
g3
g4
sg5
I01
sg6
g7
(I448
I640
I32
I32
tp2064
Rp2065
sba(iMap
Tiles
p2066
(dp2067
g3
g4
sg5
I01
sg6
g7
(I480
I640
I32
I32
tp2068
Rp2069
sba(iMap
Tiles
p2070
(dp2071
g3
g4
sg5
I01
sg6
g7
(I512
I640
I32
I32
tp2072
Rp2073
sba(iMap
Tiles
p2074
(dp2075
g3
g4
sg5
I01
sg6
g7
(I544
I640
I32
I32
tp2076
Rp2077
sba(iMap
Tiles
p2078
(dp2079
g3
g4
sg5
I01
sg6
g7
(I576
I640
I32
I32
tp2080
Rp2081
sba(iMap
Tiles
p2082
(dp2083
g3
g4
sg5
I01
sg6
g7
(I608
I640
I32
I32
tp2084
Rp2085
sba(iMap
Tiles
p2086
(dp2087
g3
g4
sg5
I01
sg6
g7
(I640
I640
I32
I32
tp2088
Rp2089
sba(iMap
Tiles
p2090
(dp2091
g3
g4
sg5
I01
sg6
g7
(I672
I640
I32
I32
tp2092
Rp2093
sba(iMap
Tiles
p2094
(dp2095
g3
g4
sg5
I01
sg6
g7
(I704
I640
I32
I32
tp2096
Rp2097
sba(iMap
Tiles
p2098
(dp2099
g3
g4
sg5
I01
sg6
g7
(I736
I640
I32
I32
tp2100
Rp2101
sba(iMap
Tiles
p2102
(dp2103
g3
g4
sg5
I01
sg6
g7
(I768
I640
I32
I32
tp2104
Rp2105
sba(iMap
Tiles
p2106
(dp2107
g3
g4
sg5
I01
sg6
g7
(I0
I672
I32
I32
tp2108
Rp2109
sba(iMap
Tiles
p2110
(dp2111
g3
g4
sg5
I01
sg6
g7
(I32
I672
I32
I32
tp2112
Rp2113
sba(iMap
Tiles
p2114
(dp2115
g3
g4
sg5
I01
sg6
g7
(I64
I672
I32
I32
tp2116
Rp2117
sba(iMap
Tiles
p2118
(dp2119
g3
g4
sg5
I01
sg6
g7
(I96
I672
I32
I32
tp2120
Rp2121
sba(iMap
Tiles
p2122
(dp2123
g3
g4
sg5
I01
sg6
g7
(I128
I672
I32
I32
tp2124
Rp2125
sba(iMap
Tiles
p2126
(dp2127
g3
g4
sg5
I01
sg6
g7
(I160
I672
I32
I32
tp2128
Rp2129
sba(iMap
Tiles
p2130
(dp2131
g3
g4
sg5
I01
sg6
g7
(I192
I672
I32
I32
tp2132
Rp2133
sba(iMap
Tiles
p2134
(dp2135
g3
g4
sg5
I01
sg6
g7
(I224
I672
I32
I32
tp2136
Rp2137
sba(iMap
Tiles
p2138
(dp2139
g3
g4
sg5
I01
sg6
g7
(I256
I672
I32
I32
tp2140
Rp2141
sba(iMap
Tiles
p2142
(dp2143
g3
g4
sg5
I01
sg6
g7
(I288
I672
I32
I32
tp2144
Rp2145
sba(iMap
Tiles
p2146
(dp2147
g3
g4
sg5
I01
sg6
g7
(I320
I672
I32
I32
tp2148
Rp2149
sba(iMap
Tiles
p2150
(dp2151
g3
g4
sg5
I01
sg6
g7
(I352
I672
I32
I32
tp2152
Rp2153
sba(iMap
Tiles
p2154
(dp2155
g3
g4
sg5
I01
sg6
g7
(I384
I672
I32
I32
tp2156
Rp2157
sba(iMap
Tiles
p2158
(dp2159
g3
g4
sg5
I01
sg6
g7
(I416
I672
I32
I32
tp2160
Rp2161
sba(iMap
Tiles
p2162
(dp2163
g3
g4
sg5
I01
sg6
g7
(I448
I672
I32
I32
tp2164
Rp2165
sba(iMap
Tiles
p2166
(dp2167
g3
g4
sg5
I01
sg6
g7
(I480
I672
I32
I32
tp2168
Rp2169
sba(iMap
Tiles
p2170
(dp2171
g3
g4
sg5
I01
sg6
g7
(I512
I672
I32
I32
tp2172
Rp2173
sba(iMap
Tiles
p2174
(dp2175
g3
g4
sg5
I01
sg6
g7
(I544
I672
I32
I32
tp2176
Rp2177
sba(iMap
Tiles
p2178
(dp2179
g3
g4
sg5
I01
sg6
g7
(I576
I672
I32
I32
tp2180
Rp2181
sba(iMap
Tiles
p2182
(dp2183
g3
g4
sg5
I01
sg6
g7
(I608
I672
I32
I32
tp2184
Rp2185
sba(iMap
Tiles
p2186
(dp2187
g3
g4
sg5
I01
sg6
g7
(I640
I672
I32
I32
tp2188
Rp2189
sba(iMap
Tiles
p2190
(dp2191
g3
g4
sg5
I01
sg6
g7
(I672
I672
I32
I32
tp2192
Rp2193
sba(iMap
Tiles
p2194
(dp2195
g3
g4
sg5
I01
sg6
g7
(I704
I672
I32
I32
tp2196
Rp2197
sba(iMap
Tiles
p2198
(dp2199
g3
g4
sg5
I01
sg6
g7
(I736
I672
I32
I32
tp2200
Rp2201
sba(iMap
Tiles
p2202
(dp2203
g3
g4
sg5
I01
sg6
g7
(I768
I672
I32
I32
tp2204
Rp2205
sba(iMap
Tiles
p2206
(dp2207
g3
g4
sg5
I01
sg6
g7
(I0
I704
I32
I32
tp2208
Rp2209
sba(iMap
Tiles
p2210
(dp2211
g3
g4
sg5
I01
sg6
g7
(I32
I704
I32
I32
tp2212
Rp2213
sba(iMap
Tiles
p2214
(dp2215
g3
g4
sg5
I01
sg6
g7
(I64
I704
I32
I32
tp2216
Rp2217
sba(iMap
Tiles
p2218
(dp2219
g3
g4
sg5
I01
sg6
g7
(I96
I704
I32
I32
tp2220
Rp2221
sba(iMap
Tiles
p2222
(dp2223
g3
g4
sg5
I01
sg6
g7
(I128
I704
I32
I32
tp2224
Rp2225
sba(iMap
Tiles
p2226
(dp2227
g3
g4
sg5
I01
sg6
g7
(I160
I704
I32
I32
tp2228
Rp2229
sba(iMap
Tiles
p2230
(dp2231
g3
g4
sg5
I01
sg6
g7
(I192
I704
I32
I32
tp2232
Rp2233
sba(iMap
Tiles
p2234
(dp2235
g3
g4
sg5
I01
sg6
g7
(I224
I704
I32
I32
tp2236
Rp2237
sba(iMap
Tiles
p2238
(dp2239
g3
g4
sg5
I01
sg6
g7
(I256
I704
I32
I32
tp2240
Rp2241
sba(iMap
Tiles
p2242
(dp2243
g3
g4
sg5
I01
sg6
g7
(I288
I704
I32
I32
tp2244
Rp2245
sba(iMap
Tiles
p2246
(dp2247
g3
g4
sg5
I01
sg6
g7
(I320
I704
I32
I32
tp2248
Rp2249
sba(iMap
Tiles
p2250
(dp2251
g3
g4
sg5
I01
sg6
g7
(I352
I704
I32
I32
tp2252
Rp2253
sba(iMap
Tiles
p2254
(dp2255
g3
g4
sg5
I01
sg6
g7
(I384
I704
I32
I32
tp2256
Rp2257
sba(iMap
Tiles
p2258
(dp2259
g3
g4
sg5
I01
sg6
g7
(I416
I704
I32
I32
tp2260
Rp2261
sba(iMap
Tiles
p2262
(dp2263
g3
g4
sg5
I01
sg6
g7
(I448
I704
I32
I32
tp2264
Rp2265
sba(iMap
Tiles
p2266
(dp2267
g3
g4
sg5
I01
sg6
g7
(I480
I704
I32
I32
tp2268
Rp2269
sba(iMap
Tiles
p2270
(dp2271
g3
g4
sg5
I01
sg6
g7
(I512
I704
I32
I32
tp2272
Rp2273
sba(iMap
Tiles
p2274
(dp2275
g3
g4
sg5
I01
sg6
g7
(I544
I704
I32
I32
tp2276
Rp2277
sba(iMap
Tiles
p2278
(dp2279
g3
g4
sg5
I01
sg6
g7
(I576
I704
I32
I32
tp2280
Rp2281
sba(iMap
Tiles
p2282
(dp2283
g3
g4
sg5
I01
sg6
g7
(I608
I704
I32
I32
tp2284
Rp2285
sba(iMap
Tiles
p2286
(dp2287
g3
g4
sg5
I01
sg6
g7
(I640
I704
I32
I32
tp2288
Rp2289
sba(iMap
Tiles
p2290
(dp2291
g3
g4
sg5
I01
sg6
g7
(I672
I704
I32
I32
tp2292
Rp2293
sba(iMap
Tiles
p2294
(dp2295
g3
g4
sg5
I01
sg6
g7
(I704
I704
I32
I32
tp2296
Rp2297
sba(iMap
Tiles
p2298
(dp2299
g3
g4
sg5
I01
sg6
g7
(I736
I704
I32
I32
tp2300
Rp2301
sba(iMap
Tiles
p2302
(dp2303
g3
g4
sg5
I01
sg6
g7
(I768
I704
I32
I32
tp2304
Rp2305
sba(iMap
Tiles
p2306
(dp2307
g3
g4
sg5
I01
sg6
g7
(I0
I736
I32
I32
tp2308
Rp2309
sba(iMap
Tiles
p2310
(dp2311
g3
g4
sg5
I01
sg6
g7
(I32
I736
I32
I32
tp2312
Rp2313
sba(iMap
Tiles
p2314
(dp2315
g3
g4
sg5
I01
sg6
g7
(I64
I736
I32
I32
tp2316
Rp2317
sba(iMap
Tiles
p2318
(dp2319
g3
g4
sg5
I01
sg6
g7
(I96
I736
I32
I32
tp2320
Rp2321
sba(iMap
Tiles
p2322
(dp2323
g3
g4
sg5
I01
sg6
g7
(I128
I736
I32
I32
tp2324
Rp2325
sba(iMap
Tiles
p2326
(dp2327
g3
g4
sg5
I01
sg6
g7
(I160
I736
I32
I32
tp2328
Rp2329
sba(iMap
Tiles
p2330
(dp2331
g3
g4
sg5
I01
sg6
g7
(I192
I736
I32
I32
tp2332
Rp2333
sba(iMap
Tiles
p2334
(dp2335
g3
g4
sg5
I01
sg6
g7
(I224
I736
I32
I32
tp2336
Rp2337
sba(iMap
Tiles
p2338
(dp2339
g3
g4
sg5
I01
sg6
g7
(I256
I736
I32
I32
tp2340
Rp2341
sba(iMap
Tiles
p2342
(dp2343
g3
g4
sg5
I01
sg6
g7
(I288
I736
I32
I32
tp2344
Rp2345
sba(iMap
Tiles
p2346
(dp2347
g3
g4
sg5
I01
sg6
g7
(I320
I736
I32
I32
tp2348
Rp2349
sba(iMap
Tiles
p2350
(dp2351
g3
g4
sg5
I01
sg6
g7
(I352
I736
I32
I32
tp2352
Rp2353
sba(iMap
Tiles
p2354
(dp2355
g3
g4
sg5
I01
sg6
g7
(I384
I736
I32
I32
tp2356
Rp2357
sba(iMap
Tiles
p2358
(dp2359
g3
g4
sg5
I01
sg6
g7
(I416
I736
I32
I32
tp2360
Rp2361
sba(iMap
Tiles
p2362
(dp2363
g3
g4
sg5
I01
sg6
g7
(I448
I736
I32
I32
tp2364
Rp2365
sba(iMap
Tiles
p2366
(dp2367
g3
g4
sg5
I01
sg6
g7
(I480
I736
I32
I32
tp2368
Rp2369
sba(iMap
Tiles
p2370
(dp2371
g3
g4
sg5
I01
sg6
g7
(I512
I736
I32
I32
tp2372
Rp2373
sba(iMap
Tiles
p2374
(dp2375
g3
g4
sg5
I01
sg6
g7
(I544
I736
I32
I32
tp2376
Rp2377
sba(iMap
Tiles
p2378
(dp2379
g3
g4
sg5
I01
sg6
g7
(I576
I736
I32
I32
tp2380
Rp2381
sba(iMap
Tiles
p2382
(dp2383
g3
g4
sg5
I01
sg6
g7
(I608
I736
I32
I32
tp2384
Rp2385
sba(iMap
Tiles
p2386
(dp2387
g3
g4
sg5
I01
sg6
g7
(I640
I736
I32
I32
tp2388
Rp2389
sba(iMap
Tiles
p2390
(dp2391
g3
g4
sg5
I01
sg6
g7
(I672
I736
I32
I32
tp2392
Rp2393
sba(iMap
Tiles
p2394
(dp2395
g3
g4
sg5
I01
sg6
g7
(I704
I736
I32
I32
tp2396
Rp2397
sba(iMap
Tiles
p2398
(dp2399
g3
g4
sg5
I01
sg6
g7
(I736
I736
I32
I32
tp2400
Rp2401
sba(iMap
Tiles
p2402
(dp2403
g3
g4
sg5
I01
sg6
g7
(I768
I736
I32
I32
tp2404
Rp2405
sba(iMap
Tiles
p2406
(dp2407
g3
g4
sg5
I01
sg6
g7
(I0
I768
I32
I32
tp2408
Rp2409
sba(iMap
Tiles
p2410
(dp2411
g3
g4
sg5
I01
sg6
g7
(I32
I768
I32
I32
tp2412
Rp2413
sba(iMap
Tiles
p2414
(dp2415
g3
g4
sg5
I01
sg6
g7
(I64
I768
I32
I32
tp2416
Rp2417
sba(iMap
Tiles
p2418
(dp2419
g3
g4
sg5
I01
sg6
g7
(I96
I768
I32
I32
tp2420
Rp2421
sba(iMap
Tiles
p2422
(dp2423
g3
g4
sg5
I01
sg6
g7
(I128
I768
I32
I32
tp2424
Rp2425
sba(iMap
Tiles
p2426
(dp2427
g3
g4
sg5
I01
sg6
g7
(I160
I768
I32
I32
tp2428
Rp2429
sba(iMap
Tiles
p2430
(dp2431
g3
g4
sg5
I01
sg6
g7
(I192
I768
I32
I32
tp2432
Rp2433
sba(iMap
Tiles
p2434
(dp2435
g3
g4
sg5
I01
sg6
g7
(I224
I768
I32
I32
tp2436
Rp2437
sba(iMap
Tiles
p2438
(dp2439
g3
g4
sg5
I01
sg6
g7
(I256
I768
I32
I32
tp2440
Rp2441
sba(iMap
Tiles
p2442
(dp2443
g3
g4
sg5
I01
sg6
g7
(I288
I768
I32
I32
tp2444
Rp2445
sba(iMap
Tiles
p2446
(dp2447
g3
g4
sg5
I01
sg6
g7
(I320
I768
I32
I32
tp2448
Rp2449
sba(iMap
Tiles
p2450
(dp2451
g3
g4
sg5
I01
sg6
g7
(I352
I768
I32
I32
tp2452
Rp2453
sba(iMap
Tiles
p2454
(dp2455
g3
g4
sg5
I01
sg6
g7
(I384
I768
I32
I32
tp2456
Rp2457
sba(iMap
Tiles
p2458
(dp2459
g3
g4
sg5
I01
sg6
g7
(I416
I768
I32
I32
tp2460
Rp2461
sba(iMap
Tiles
p2462
(dp2463
g3
g4
sg5
I01
sg6
g7
(I448
I768
I32
I32
tp2464
Rp2465
sba(iMap
Tiles
p2466
(dp2467
g3
g4
sg5
I01
sg6
g7
(I480
I768
I32
I32
tp2468
Rp2469
sba(iMap
Tiles
p2470
(dp2471
g3
g4
sg5
I01
sg6
g7
(I512
I768
I32
I32
tp2472
Rp2473
sba(iMap
Tiles
p2474
(dp2475
g3
g4
sg5
I01
sg6
g7
(I544
I768
I32
I32
tp2476
Rp2477
sba(iMap
Tiles
p2478
(dp2479
g3
g4
sg5
I01
sg6
g7
(I576
I768
I32
I32
tp2480
Rp2481
sba(iMap
Tiles
p2482
(dp2483
g3
g4
sg5
I01
sg6
g7
(I608
I768
I32
I32
tp2484
Rp2485
sba(iMap
Tiles
p2486
(dp2487
g3
g4
sg5
I01
sg6
g7
(I640
I768
I32
I32
tp2488
Rp2489
sba(iMap
Tiles
p2490
(dp2491
g3
g4
sg5
I01
sg6
g7
(I672
I768
I32
I32
tp2492
Rp2493
sba(iMap
Tiles
p2494
(dp2495
g3
g4
sg5
I01
sg6
g7
(I704
I768
I32
I32
tp2496
Rp2497
sba(iMap
Tiles
p2498
(dp2499
g3
g4
sg5
I01
sg6
g7
(I736
I768
I32
I32
tp2500
Rp2501
sba(iMap
Tiles
p2502
(dp2503
g3
g4
sg5
I01
sg6
g7
(I768
I768
I32
I32
tp2504
Rp2505
sba.