(lp0
(iMap
Tiles
p1
(dp2
S'color'
p3
(I255
I255
I255
tp4
sS'is_wall'
p5
I01
sS'Xpos'
p6
I0
sS'Ypos'
p7
I0
sS'rect'
p8
cpygame
__rect_constructor
p9
(I0
I0
I32
I32
tp10
Rp11
sba(iMap
Tiles
p12
(dp13
g3
g4
sg5
I01
sg6
I1
sg7
I0
sg8
g9
(I32
I0
I32
I32
tp14
Rp15
sba(iMap
Tiles
p16
(dp17
g3
g4
sg5
I01
sg6
I2
sg7
I0
sg8
g9
(I64
I0
I32
I32
tp18
Rp19
sba(iMap
Tiles
p20
(dp21
g3
g4
sg5
I01
sg6
I3
sg7
I0
sg8
g9
(I96
I0
I32
I32
tp22
Rp23
sba(iMap
Tiles
p24
(dp25
g3
g4
sg5
I01
sg6
I4
sg7
I0
sg8
g9
(I128
I0
I32
I32
tp26
Rp27
sba(iMap
Tiles
p28
(dp29
g3
g4
sg5
I01
sg6
I5
sg7
I0
sg8
g9
(I160
I0
I32
I32
tp30
Rp31
sba(iMap
Tiles
p32
(dp33
g3
g4
sg5
I01
sg6
I6
sg7
I0
sg8
g9
(I192
I0
I32
I32
tp34
Rp35
sba(iMap
Tiles
p36
(dp37
g3
g4
sg5
I01
sg6
I7
sg7
I0
sg8
g9
(I224
I0
I32
I32
tp38
Rp39
sba(iMap
Tiles
p40
(dp41
g3
g4
sg5
I01
sg6
I8
sg7
I0
sg8
g9
(I256
I0
I32
I32
tp42
Rp43
sba(iMap
Tiles
p44
(dp45
g3
g4
sg5
I01
sg6
I9
sg7
I0
sg8
g9
(I288
I0
I32
I32
tp46
Rp47
sba(iMap
Tiles
p48
(dp49
g3
g4
sg5
I01
sg6
I10
sg7
I0
sg8
g9
(I320
I0
I32
I32
tp50
Rp51
sba(iMap
Tiles
p52
(dp53
g3
g4
sg5
I01
sg6
I11
sg7
I0
sg8
g9
(I352
I0
I32
I32
tp54
Rp55
sba(iMap
Tiles
p56
(dp57
g3
g4
sg5
I01
sg6
I12
sg7
I0
sg8
g9
(I384
I0
I32
I32
tp58
Rp59
sba(iMap
Tiles
p60
(dp61
g3
g4
sg5
I01
sg6
I13
sg7
I0
sg8
g9
(I416
I0
I32
I32
tp62
Rp63
sba(iMap
Tiles
p64
(dp65
g3
g4
sg5
I01
sg6
I14
sg7
I0
sg8
g9
(I448
I0
I32
I32
tp66
Rp67
sba(iMap
Tiles
p68
(dp69
g3
g4
sg5
I01
sg6
I15
sg7
I0
sg8
g9
(I480
I0
I32
I32
tp70
Rp71
sba(iMap
Tiles
p72
(dp73
g3
g4
sg5
I01
sg6
I16
sg7
I0
sg8
g9
(I512
I0
I32
I32
tp74
Rp75
sba(iMap
Tiles
p76
(dp77
g3
g4
sg5
I01
sg6
I17
sg7
I0
sg8
g9
(I544
I0
I32
I32
tp78
Rp79
sba(iMap
Tiles
p80
(dp81
g3
g4
sg5
I01
sg6
I18
sg7
I0
sg8
g9
(I576
I0
I32
I32
tp82
Rp83
sba(iMap
Tiles
p84
(dp85
g3
g4
sg5
I01
sg6
I19
sg7
I0
sg8
g9
(I608
I0
I32
I32
tp86
Rp87
sba(iMap
Tiles
p88
(dp89
g3
g4
sg5
I01
sg6
I20
sg7
I0
sg8
g9
(I640
I0
I32
I32
tp90
Rp91
sba(iMap
Tiles
p92
(dp93
g3
g4
sg5
I01
sg6
I21
sg7
I0
sg8
g9
(I672
I0
I32
I32
tp94
Rp95
sba(iMap
Tiles
p96
(dp97
g3
g4
sg5
I01
sg6
I22
sg7
I0
sg8
g9
(I704
I0
I32
I32
tp98
Rp99
sba(iMap
Tiles
p100
(dp101
g3
g4
sg5
I01
sg6
I23
sg7
I0
sg8
g9
(I736
I0
I32
I32
tp102
Rp103
sba(iMap
Tiles
p104
(dp105
g3
g4
sg5
I01
sg6
I24
sg7
I0
sg8
g9
(I768
I0
I32
I32
tp106
Rp107
sba(iMap
Tiles
p108
(dp109
g3
g4
sg5
I01
sg6
I0
sg7
I1
sg8
g9
(I0
I32
I32
I32
tp110
Rp111
sba(iMap
Tiles
p112
(dp113
g3
(I0
I0
I0
tp114
sg5
I00
sg6
I1
sg7
I1
sg8
g9
(I32
I32
I32
I32
tp115
Rp116
sba(iMap
Tiles
p117
(dp118
g3
g114
sg5
I00
sg6
I2
sg7
I1
sg8
g9
(I64
I32
I32
I32
tp119
Rp120
sba(iMap
Tiles
p121
(dp122
g3
g114
sg5
I00
sg6
I3
sg7
I1
sg8
g9
(I96
I32
I32
I32
tp123
Rp124
sba(iMap
Tiles
p125
(dp126
g3
g114
sg5
I00
sg6
I4
sg7
I1
sg8
g9
(I128
I32
I32
I32
tp127
Rp128
sba(iMap
Tiles
p129
(dp130
g3
g4
sg5
I01
sg6
I5
sg7
I1
sg8
g9
(I160
I32
I32
I32
tp131
Rp132
sba(iMap
Tiles
p133
(dp134
g3
g4
sg5
I01
sg6
I6
sg7
I1
sg8
g9
(I192
I32
I32
I32
tp135
Rp136
sba(iMap
Tiles
p137
(dp138
g3
g4
sg5
I01
sg6
I7
sg7
I1
sg8
g9
(I224
I32
I32
I32
tp139
Rp140
sba(iMap
Tiles
p141
(dp142
g3
g4
sg5
I01
sg6
I8
sg7
I1
sg8
g9
(I256
I32
I32
I32
tp143
Rp144
sba(iMap
Tiles
p145
(dp146
g3
g4
sg5
I01
sg6
I9
sg7
I1
sg8
g9
(I288
I32
I32
I32
tp147
Rp148
sba(iMap
Tiles
p149
(dp150
g3
g4
sg5
I01
sg6
I10
sg7
I1
sg8
g9
(I320
I32
I32
I32
tp151
Rp152
sba(iMap
Tiles
p153
(dp154
g3
g4
sg5
I01
sg6
I11
sg7
I1
sg8
g9
(I352
I32
I32
I32
tp155
Rp156
sba(iMap
Tiles
p157
(dp158
g3
g4
sg5
I01
sg6
I12
sg7
I1
sg8
g9
(I384
I32
I32
I32
tp159
Rp160
sba(iMap
Tiles
p161
(dp162
g3
g4
sg5
I01
sg6
I13
sg7
I1
sg8
g9
(I416
I32
I32
I32
tp163
Rp164
sba(iMap
Tiles
p165
(dp166
g3
g4
sg5
I01
sg6
I14
sg7
I1
sg8
g9
(I448
I32
I32
I32
tp167
Rp168
sba(iMap
Tiles
p169
(dp170
g3
g4
sg5
I01
sg6
I15
sg7
I1
sg8
g9
(I480
I32
I32
I32
tp171
Rp172
sba(iMap
Tiles
p173
(dp174
g3
g4
sg5
I01
sg6
I16
sg7
I1
sg8
g9
(I512
I32
I32
I32
tp175
Rp176
sba(iMap
Tiles
p177
(dp178
g3
g4
sg5
I01
sg6
I17
sg7
I1
sg8
g9
(I544
I32
I32
I32
tp179
Rp180
sba(iMap
Tiles
p181
(dp182
g3
g4
sg5
I01
sg6
I18
sg7
I1
sg8
g9
(I576
I32
I32
I32
tp183
Rp184
sba(iMap
Tiles
p185
(dp186
g3
g4
sg5
I01
sg6
I19
sg7
I1
sg8
g9
(I608
I32
I32
I32
tp187
Rp188
sba(iMap
Tiles
p189
(dp190
g3
g4
sg5
I01
sg6
I20
sg7
I1
sg8
g9
(I640
I32
I32
I32
tp191
Rp192
sba(iMap
Tiles
p193
(dp194
g3
g4
sg5
I01
sg6
I21
sg7
I1
sg8
g9
(I672
I32
I32
I32
tp195
Rp196
sba(iMap
Tiles
p197
(dp198
g3
g4
sg5
I01
sg6
I22
sg7
I1
sg8
g9
(I704
I32
I32
I32
tp199
Rp200
sba(iMap
Tiles
p201
(dp202
g3
g4
sg5
I01
sg6
I23
sg7
I1
sg8
g9
(I736
I32
I32
I32
tp203
Rp204
sba(iMap
Tiles
p205
(dp206
g3
g4
sg5
I01
sg6
I24
sg7
I1
sg8
g9
(I768
I32
I32
I32
tp207
Rp208
sba(iMap
Tiles
p209
(dp210
g3
(I255
I255
I255
tp211
sg5
I01
sg6
I0
sg7
I2
sg8
g9
(I0
I64
I32
I32
tp212
Rp213
sba(iMap
Tiles
p214
(dp215
g3
g114
sg5
I00
sg6
I1
sg7
I2
sg8
g9
(I32
I64
I32
I32
tp216
Rp217
sba(iMap
Tiles
p218
(dp219
g3
g114
sg5
I00
sg6
I2
sg7
I2
sg8
g9
(I64
I64
I32
I32
tp220
Rp221
sba(iMap
Tiles
p222
(dp223
g3
g114
sg5
I00
sg6
I3
sg7
I2
sg8
g9
(I96
I64
I32
I32
tp224
Rp225
sba(iMap
Tiles
p226
(dp227
g3
g114
sg5
I00
sg6
I4
sg7
I2
sg8
g9
(I128
I64
I32
I32
tp228
Rp229
sba(iMap
Tiles
p230
(dp231
g3
g4
sg5
I01
sg6
I5
sg7
I2
sg8
g9
(I160
I64
I32
I32
tp232
Rp233
sba(iMap
Tiles
p234
(dp235
g3
g4
sg5
I01
sg6
I6
sg7
I2
sg8
g9
(I192
I64
I32
I32
tp236
Rp237
sba(iMap
Tiles
p238
(dp239
g3
g4
sg5
I01
sg6
I7
sg7
I2
sg8
g9
(I224
I64
I32
I32
tp240
Rp241
sba(iMap
Tiles
p242
(dp243
g3
g4
sg5
I01
sg6
I8
sg7
I2
sg8
g9
(I256
I64
I32
I32
tp244
Rp245
sba(iMap
Tiles
p246
(dp247
g3
g4
sg5
I01
sg6
I9
sg7
I2
sg8
g9
(I288
I64
I32
I32
tp248
Rp249
sba(iMap
Tiles
p250
(dp251
g3
g4
sg5
I01
sg6
I10
sg7
I2
sg8
g9
(I320
I64
I32
I32
tp252
Rp253
sba(iMap
Tiles
p254
(dp255
g3
g4
sg5
I01
sg6
I11
sg7
I2
sg8
g9
(I352
I64
I32
I32
tp256
Rp257
sba(iMap
Tiles
p258
(dp259
g3
g4
sg5
I01
sg6
I12
sg7
I2
sg8
g9
(I384
I64
I32
I32
tp260
Rp261
sba(iMap
Tiles
p262
(dp263
g3
g4
sg5
I01
sg6
I13
sg7
I2
sg8
g9
(I416
I64
I32
I32
tp264
Rp265
sba(iMap
Tiles
p266
(dp267
g3
g4
sg5
I01
sg6
I14
sg7
I2
sg8
g9
(I448
I64
I32
I32
tp268
Rp269
sba(iMap
Tiles
p270
(dp271
g3
g4
sg5
I01
sg6
I15
sg7
I2
sg8
g9
(I480
I64
I32
I32
tp272
Rp273
sba(iMap
Tiles
p274
(dp275
g3
g4
sg5
I01
sg6
I16
sg7
I2
sg8
g9
(I512
I64
I32
I32
tp276
Rp277
sba(iMap
Tiles
p278
(dp279
g3
g4
sg5
I01
sg6
I17
sg7
I2
sg8
g9
(I544
I64
I32
I32
tp280
Rp281
sba(iMap
Tiles
p282
(dp283
g3
g4
sg5
I01
sg6
I18
sg7
I2
sg8
g9
(I576
I64
I32
I32
tp284
Rp285
sba(iMap
Tiles
p286
(dp287
g3
g4
sg5
I01
sg6
I19
sg7
I2
sg8
g9
(I608
I64
I32
I32
tp288
Rp289
sba(iMap
Tiles
p290
(dp291
g3
g4
sg5
I01
sg6
I20
sg7
I2
sg8
g9
(I640
I64
I32
I32
tp292
Rp293
sba(iMap
Tiles
p294
(dp295
g3
g4
sg5
I01
sg6
I21
sg7
I2
sg8
g9
(I672
I64
I32
I32
tp296
Rp297
sba(iMap
Tiles
p298
(dp299
g3
g4
sg5
I01
sg6
I22
sg7
I2
sg8
g9
(I704
I64
I32
I32
tp300
Rp301
sba(iMap
Tiles
p302
(dp303
g3
g4
sg5
I01
sg6
I23
sg7
I2
sg8
g9
(I736
I64
I32
I32
tp304
Rp305
sba(iMap
Tiles
p306
(dp307
g3
g4
sg5
I01
sg6
I24
sg7
I2
sg8
g9
(I768
I64
I32
I32
tp308
Rp309
sba(iMap
Tiles
p310
(dp311
g3
g4
sg5
I01
sg6
I0
sg7
I3
sg8
g9
(I0
I96
I32
I32
tp312
Rp313
sba(iMap
Tiles
p314
(dp315
g3
g114
sg5
I00
sg6
I1
sg7
I3
sg8
g9
(I32
I96
I32
I32
tp316
Rp317
sba(iMap
Tiles
p318
(dp319
g3
g114
sg5
I00
sg6
I2
sg7
I3
sg8
g9
(I64
I96
I32
I32
tp320
Rp321
sba(iMap
Tiles
p322
(dp323
g3
g114
sg5
I00
sg6
I3
sg7
I3
sg8
g9
(I96
I96
I32
I32
tp324
Rp325
sba(iMap
Tiles
p326
(dp327
g3
g114
sg5
I00
sg6
I4
sg7
I3
sg8
g9
(I128
I96
I32
I32
tp328
Rp329
sba(iMap
Tiles
p330
(dp331
g3
g4
sg5
I01
sg6
I5
sg7
I3
sg8
g9
(I160
I96
I32
I32
tp332
Rp333
sba(iMap
Tiles
p334
(dp335
g3
g4
sg5
I01
sg6
I6
sg7
I3
sg8
g9
(I192
I96
I32
I32
tp336
Rp337
sba(iMap
Tiles
p338
(dp339
g3
g4
sg5
I01
sg6
I7
sg7
I3
sg8
g9
(I224
I96
I32
I32
tp340
Rp341
sba(iMap
Tiles
p342
(dp343
g3
g4
sg5
I01
sg6
I8
sg7
I3
sg8
g9
(I256
I96
I32
I32
tp344
Rp345
sba(iMap
Tiles
p346
(dp347
g3
g4
sg5
I01
sg6
I9
sg7
I3
sg8
g9
(I288
I96
I32
I32
tp348
Rp349
sba(iMap
Tiles
p350
(dp351
g3
g4
sg5
I01
sg6
I10
sg7
I3
sg8
g9
(I320
I96
I32
I32
tp352
Rp353
sba(iMap
Tiles
p354
(dp355
g3
g4
sg5
I01
sg6
I11
sg7
I3
sg8
g9
(I352
I96
I32
I32
tp356
Rp357
sba(iMap
Tiles
p358
(dp359
g3
g4
sg5
I01
sg6
I12
sg7
I3
sg8
g9
(I384
I96
I32
I32
tp360
Rp361
sba(iMap
Tiles
p362
(dp363
g3
g4
sg5
I01
sg6
I13
sg7
I3
sg8
g9
(I416
I96
I32
I32
tp364
Rp365
sba(iMap
Tiles
p366
(dp367
g3
g4
sg5
I01
sg6
I14
sg7
I3
sg8
g9
(I448
I96
I32
I32
tp368
Rp369
sba(iMap
Tiles
p370
(dp371
g3
g4
sg5
I01
sg6
I15
sg7
I3
sg8
g9
(I480
I96
I32
I32
tp372
Rp373
sba(iMap
Tiles
p374
(dp375
g3
g4
sg5
I01
sg6
I16
sg7
I3
sg8
g9
(I512
I96
I32
I32
tp376
Rp377
sba(iMap
Tiles
p378
(dp379
g3
g4
sg5
I01
sg6
I17
sg7
I3
sg8
g9
(I544
I96
I32
I32
tp380
Rp381
sba(iMap
Tiles
p382
(dp383
g3
g4
sg5
I01
sg6
I18
sg7
I3
sg8
g9
(I576
I96
I32
I32
tp384
Rp385
sba(iMap
Tiles
p386
(dp387
g3
g4
sg5
I01
sg6
I19
sg7
I3
sg8
g9
(I608
I96
I32
I32
tp388
Rp389
sba(iMap
Tiles
p390
(dp391
g3
g4
sg5
I01
sg6
I20
sg7
I3
sg8
g9
(I640
I96
I32
I32
tp392
Rp393
sba(iMap
Tiles
p394
(dp395
g3
g4
sg5
I01
sg6
I21
sg7
I3
sg8
g9
(I672
I96
I32
I32
tp396
Rp397
sba(iMap
Tiles
p398
(dp399
g3
g4
sg5
I01
sg6
I22
sg7
I3
sg8
g9
(I704
I96
I32
I32
tp400
Rp401
sba(iMap
Tiles
p402
(dp403
g3
g4
sg5
I01
sg6
I23
sg7
I3
sg8
g9
(I736
I96
I32
I32
tp404
Rp405
sba(iMap
Tiles
p406
(dp407
g3
g4
sg5
I01
sg6
I24
sg7
I3
sg8
g9
(I768
I96
I32
I32
tp408
Rp409
sba(iMap
Tiles
p410
(dp411
g3
g4
sg5
I01
sg6
I0
sg7
I4
sg8
g9
(I0
I128
I32
I32
tp412
Rp413
sba(iMap
Tiles
p414
(dp415
g3
g114
sg5
I00
sg6
I1
sg7
I4
sg8
g9
(I32
I128
I32
I32
tp416
Rp417
sba(iMap
Tiles
p418
(dp419
g3
g114
sg5
I00
sg6
I2
sg7
I4
sg8
g9
(I64
I128
I32
I32
tp420
Rp421
sba(iMap
Tiles
p422
(dp423
g3
g114
sg5
I00
sg6
I3
sg7
I4
sg8
g9
(I96
I128
I32
I32
tp424
Rp425
sba(iMap
Tiles
p426
(dp427
g3
g114
sg5
I00
sg6
I4
sg7
I4
sg8
g9
(I128
I128
I32
I32
tp428
Rp429
sba(iMap
Tiles
p430
(dp431
g3
g4
sg5
I01
sg6
I5
sg7
I4
sg8
g9
(I160
I128
I32
I32
tp432
Rp433
sba(iMap
Tiles
p434
(dp435
g3
g4
sg5
I01
sg6
I6
sg7
I4
sg8
g9
(I192
I128
I32
I32
tp436
Rp437
sba(iMap
Tiles
p438
(dp439
g3
g4
sg5
I01
sg6
I7
sg7
I4
sg8
g9
(I224
I128
I32
I32
tp440
Rp441
sba(iMap
Tiles
p442
(dp443
g3
g4
sg5
I01
sg6
I8
sg7
I4
sg8
g9
(I256
I128
I32
I32
tp444
Rp445
sba(iMap
Tiles
p446
(dp447
g3
g4
sg5
I01
sg6
I9
sg7
I4
sg8
g9
(I288
I128
I32
I32
tp448
Rp449
sba(iMap
Tiles
p450
(dp451
g3
g4
sg5
I01
sg6
I10
sg7
I4
sg8
g9
(I320
I128
I32
I32
tp452
Rp453
sba(iMap
Tiles
p454
(dp455
g3
g4
sg5
I01
sg6
I11
sg7
I4
sg8
g9
(I352
I128
I32
I32
tp456
Rp457
sba(iMap
Tiles
p458
(dp459
g3
g4
sg5
I01
sg6
I12
sg7
I4
sg8
g9
(I384
I128
I32
I32
tp460
Rp461
sba(iMap
Tiles
p462
(dp463
g3
g4
sg5
I01
sg6
I13
sg7
I4
sg8
g9
(I416
I128
I32
I32
tp464
Rp465
sba(iMap
Tiles
p466
(dp467
g3
g4
sg5
I01
sg6
I14
sg7
I4
sg8
g9
(I448
I128
I32
I32
tp468
Rp469
sba(iMap
Tiles
p470
(dp471
g3
g4
sg5
I01
sg6
I15
sg7
I4
sg8
g9
(I480
I128
I32
I32
tp472
Rp473
sba(iMap
Tiles
p474
(dp475
g3
g4
sg5
I01
sg6
I16
sg7
I4
sg8
g9
(I512
I128
I32
I32
tp476
Rp477
sba(iMap
Tiles
p478
(dp479
g3
g4
sg5
I01
sg6
I17
sg7
I4
sg8
g9
(I544
I128
I32
I32
tp480
Rp481
sba(iMap
Tiles
p482
(dp483
g3
g4
sg5
I01
sg6
I18
sg7
I4
sg8
g9
(I576
I128
I32
I32
tp484
Rp485
sba(iMap
Tiles
p486
(dp487
g3
g4
sg5
I01
sg6
I19
sg7
I4
sg8
g9
(I608
I128
I32
I32
tp488
Rp489
sba(iMap
Tiles
p490
(dp491
g3
g4
sg5
I01
sg6
I20
sg7
I4
sg8
g9
(I640
I128
I32
I32
tp492
Rp493
sba(iMap
Tiles
p494
(dp495
g3
g4
sg5
I01
sg6
I21
sg7
I4
sg8
g9
(I672
I128
I32
I32
tp496
Rp497
sba(iMap
Tiles
p498
(dp499
g3
g4
sg5
I01
sg6
I22
sg7
I4
sg8
g9
(I704
I128
I32
I32
tp500
Rp501
sba(iMap
Tiles
p502
(dp503
g3
g4
sg5
I01
sg6
I23
sg7
I4
sg8
g9
(I736
I128
I32
I32
tp504
Rp505
sba(iMap
Tiles
p506
(dp507
g3
g4
sg5
I01
sg6
I24
sg7
I4
sg8
g9
(I768
I128
I32
I32
tp508
Rp509
sba(iMap
Tiles
p510
(dp511
g3
g4
sg5
I01
sg6
I0
sg7
I5
sg8
g9
(I0
I160
I32
I32
tp512
Rp513
sba(iMap
Tiles
p514
(dp515
g3
g114
sg5
I00
sg6
I1
sg7
I5
sg8
g9
(I32
I160
I32
I32
tp516
Rp517
sba(iMap
Tiles
p518
(dp519
g3
g114
sg5
I00
sg6
I2
sg7
I5
sg8
g9
(I64
I160
I32
I32
tp520
Rp521
sba(iMap
Tiles
p522
(dp523
g3
g114
sg5
I00
sg6
I3
sg7
I5
sg8
g9
(I96
I160
I32
I32
tp524
Rp525
sba(iMap
Tiles
p526
(dp527
g3
g114
sg5
I00
sg6
I4
sg7
I5
sg8
g9
(I128
I160
I32
I32
tp528
Rp529
sba(iMap
Tiles
p530
(dp531
g3
g4
sg5
I01
sg6
I5
sg7
I5
sg8
g9
(I160
I160
I32
I32
tp532
Rp533
sba(iMap
Tiles
p534
(dp535
g3
g4
sg5
I01
sg6
I6
sg7
I5
sg8
g9
(I192
I160
I32
I32
tp536
Rp537
sba(iMap
Tiles
p538
(dp539
g3
g4
sg5
I01
sg6
I7
sg7
I5
sg8
g9
(I224
I160
I32
I32
tp540
Rp541
sba(iMap
Tiles
p542
(dp543
g3
g4
sg5
I01
sg6
I8
sg7
I5
sg8
g9
(I256
I160
I32
I32
tp544
Rp545
sba(iMap
Tiles
p546
(dp547
g3
g4
sg5
I01
sg6
I9
sg7
I5
sg8
g9
(I288
I160
I32
I32
tp548
Rp549
sba(iMap
Tiles
p550
(dp551
g3
g4
sg5
I01
sg6
I10
sg7
I5
sg8
g9
(I320
I160
I32
I32
tp552
Rp553
sba(iMap
Tiles
p554
(dp555
g3
g4
sg5
I01
sg6
I11
sg7
I5
sg8
g9
(I352
I160
I32
I32
tp556
Rp557
sba(iMap
Tiles
p558
(dp559
g3
g4
sg5
I01
sg6
I12
sg7
I5
sg8
g9
(I384
I160
I32
I32
tp560
Rp561
sba(iMap
Tiles
p562
(dp563
g3
g4
sg5
I01
sg6
I13
sg7
I5
sg8
g9
(I416
I160
I32
I32
tp564
Rp565
sba(iMap
Tiles
p566
(dp567
g3
g4
sg5
I01
sg6
I14
sg7
I5
sg8
g9
(I448
I160
I32
I32
tp568
Rp569
sba(iMap
Tiles
p570
(dp571
g3
g4
sg5
I01
sg6
I15
sg7
I5
sg8
g9
(I480
I160
I32
I32
tp572
Rp573
sba(iMap
Tiles
p574
(dp575
g3
g4
sg5
I01
sg6
I16
sg7
I5
sg8
g9
(I512
I160
I32
I32
tp576
Rp577
sba(iMap
Tiles
p578
(dp579
g3
g4
sg5
I01
sg6
I17
sg7
I5
sg8
g9
(I544
I160
I32
I32
tp580
Rp581
sba(iMap
Tiles
p582
(dp583
g3
g4
sg5
I01
sg6
I18
sg7
I5
sg8
g9
(I576
I160
I32
I32
tp584
Rp585
sba(iMap
Tiles
p586
(dp587
g3
g4
sg5
I01
sg6
I19
sg7
I5
sg8
g9
(I608
I160
I32
I32
tp588
Rp589
sba(iMap
Tiles
p590
(dp591
g3
g4
sg5
I01
sg6
I20
sg7
I5
sg8
g9
(I640
I160
I32
I32
tp592
Rp593
sba(iMap
Tiles
p594
(dp595
g3
g4
sg5
I01
sg6
I21
sg7
I5
sg8
g9
(I672
I160
I32
I32
tp596
Rp597
sba(iMap
Tiles
p598
(dp599
g3
g4
sg5
I01
sg6
I22
sg7
I5
sg8
g9
(I704
I160
I32
I32
tp600
Rp601
sba(iMap
Tiles
p602
(dp603
g3
g4
sg5
I01
sg6
I23
sg7
I5
sg8
g9
(I736
I160
I32
I32
tp604
Rp605
sba(iMap
Tiles
p606
(dp607
g3
g4
sg5
I01
sg6
I24
sg7
I5
sg8
g9
(I768
I160
I32
I32
tp608
Rp609
sba(iMap
Tiles
p610
(dp611
g3
g4
sg5
I01
sg6
I0
sg7
I6
sg8
g9
(I0
I192
I32
I32
tp612
Rp613
sba(iMap
Tiles
p614
(dp615
g3
g4
sg5
I01
sg6
I1
sg7
I6
sg8
g9
(I32
I192
I32
I32
tp616
Rp617
sba(iMap
Tiles
p618
(dp619
g3
g114
sg5
I00
sg6
I2
sg7
I6
sg8
g9
(I64
I192
I32
I32
tp620
Rp621
sba(iMap
Tiles
p622
(dp623
g3
g114
sg5
I00
sg6
I3
sg7
I6
sg8
g9
(I96
I192
I32
I32
tp624
Rp625
sba(iMap
Tiles
p626
(dp627
g3
g4
sg5
I01
sg6
I4
sg7
I6
sg8
g9
(I128
I192
I32
I32
tp628
Rp629
sba(iMap
Tiles
p630
(dp631
g3
g4
sg5
I01
sg6
I5
sg7
I6
sg8
g9
(I160
I192
I32
I32
tp632
Rp633
sba(iMap
Tiles
p634
(dp635
g3
g4
sg5
I01
sg6
I6
sg7
I6
sg8
g9
(I192
I192
I32
I32
tp636
Rp637
sba(iMap
Tiles
p638
(dp639
g3
g4
sg5
I01
sg6
I7
sg7
I6
sg8
g9
(I224
I192
I32
I32
tp640
Rp641
sba(iMap
Tiles
p642
(dp643
g3
g4
sg5
I01
sg6
I8
sg7
I6
sg8
g9
(I256
I192
I32
I32
tp644
Rp645
sba(iMap
Tiles
p646
(dp647
g3
g4
sg5
I01
sg6
I9
sg7
I6
sg8
g9
(I288
I192
I32
I32
tp648
Rp649
sba(iMap
Tiles
p650
(dp651
g3
g4
sg5
I01
sg6
I10
sg7
I6
sg8
g9
(I320
I192
I32
I32
tp652
Rp653
sba(iMap
Tiles
p654
(dp655
g3
g4
sg5
I01
sg6
I11
sg7
I6
sg8
g9
(I352
I192
I32
I32
tp656
Rp657
sba(iMap
Tiles
p658
(dp659
g3
g4
sg5
I01
sg6
I12
sg7
I6
sg8
g9
(I384
I192
I32
I32
tp660
Rp661
sba(iMap
Tiles
p662
(dp663
g3
g4
sg5
I01
sg6
I13
sg7
I6
sg8
g9
(I416
I192
I32
I32
tp664
Rp665
sba(iMap
Tiles
p666
(dp667
g3
g4
sg5
I01
sg6
I14
sg7
I6
sg8
g9
(I448
I192
I32
I32
tp668
Rp669
sba(iMap
Tiles
p670
(dp671
g3
g4
sg5
I01
sg6
I15
sg7
I6
sg8
g9
(I480
I192
I32
I32
tp672
Rp673
sba(iMap
Tiles
p674
(dp675
g3
g4
sg5
I01
sg6
I16
sg7
I6
sg8
g9
(I512
I192
I32
I32
tp676
Rp677
sba(iMap
Tiles
p678
(dp679
g3
g4
sg5
I01
sg6
I17
sg7
I6
sg8
g9
(I544
I192
I32
I32
tp680
Rp681
sba(iMap
Tiles
p682
(dp683
g3
g4
sg5
I01
sg6
I18
sg7
I6
sg8
g9
(I576
I192
I32
I32
tp684
Rp685
sba(iMap
Tiles
p686
(dp687
g3
g4
sg5
I01
sg6
I19
sg7
I6
sg8
g9
(I608
I192
I32
I32
tp688
Rp689
sba(iMap
Tiles
p690
(dp691
g3
g4
sg5
I01
sg6
I20
sg7
I6
sg8
g9
(I640
I192
I32
I32
tp692
Rp693
sba(iMap
Tiles
p694
(dp695
g3
g4
sg5
I01
sg6
I21
sg7
I6
sg8
g9
(I672
I192
I32
I32
tp696
Rp697
sba(iMap
Tiles
p698
(dp699
g3
g4
sg5
I01
sg6
I22
sg7
I6
sg8
g9
(I704
I192
I32
I32
tp700
Rp701
sba(iMap
Tiles
p702
(dp703
g3
g4
sg5
I01
sg6
I23
sg7
I6
sg8
g9
(I736
I192
I32
I32
tp704
Rp705
sba(iMap
Tiles
p706
(dp707
g3
g4
sg5
I01
sg6
I24
sg7
I6
sg8
g9
(I768
I192
I32
I32
tp708
Rp709
sba(iMap
Tiles
p710
(dp711
g3
g4
sg5
I01
sg6
I0
sg7
I7
sg8
g9
(I0
I224
I32
I32
tp712
Rp713
sba(iMap
Tiles
p714
(dp715
g3
g4
sg5
I01
sg6
I1
sg7
I7
sg8
g9
(I32
I224
I32
I32
tp716
Rp717
sba(iMap
Tiles
p718
(dp719
g3
g114
sg5
I00
sg6
I2
sg7
I7
sg8
g9
(I64
I224
I32
I32
tp720
Rp721
sba(iMap
Tiles
p722
(dp723
g3
g114
sg5
I00
sg6
I3
sg7
I7
sg8
g9
(I96
I224
I32
I32
tp724
Rp725
sba(iMap
Tiles
p726
(dp727
g3
g4
sg5
I01
sg6
I4
sg7
I7
sg8
g9
(I128
I224
I32
I32
tp728
Rp729
sba(iMap
Tiles
p730
(dp731
g3
g4
sg5
I01
sg6
I5
sg7
I7
sg8
g9
(I160
I224
I32
I32
tp732
Rp733
sba(iMap
Tiles
p734
(dp735
g3
g4
sg5
I01
sg6
I6
sg7
I7
sg8
g9
(I192
I224
I32
I32
tp736
Rp737
sba(iMap
Tiles
p738
(dp739
g3
g4
sg5
I01
sg6
I7
sg7
I7
sg8
g9
(I224
I224
I32
I32
tp740
Rp741
sba(iMap
Tiles
p742
(dp743
g3
g4
sg5
I01
sg6
I8
sg7
I7
sg8
g9
(I256
I224
I32
I32
tp744
Rp745
sba(iMap
Tiles
p746
(dp747
g3
g4
sg5
I01
sg6
I9
sg7
I7
sg8
g9
(I288
I224
I32
I32
tp748
Rp749
sba(iMap
Tiles
p750
(dp751
g3
g4
sg5
I01
sg6
I10
sg7
I7
sg8
g9
(I320
I224
I32
I32
tp752
Rp753
sba(iMap
Tiles
p754
(dp755
g3
g4
sg5
I01
sg6
I11
sg7
I7
sg8
g9
(I352
I224
I32
I32
tp756
Rp757
sba(iMap
Tiles
p758
(dp759
g3
g4
sg5
I01
sg6
I12
sg7
I7
sg8
g9
(I384
I224
I32
I32
tp760
Rp761
sba(iMap
Tiles
p762
(dp763
g3
g4
sg5
I01
sg6
I13
sg7
I7
sg8
g9
(I416
I224
I32
I32
tp764
Rp765
sba(iMap
Tiles
p766
(dp767
g3
g4
sg5
I01
sg6
I14
sg7
I7
sg8
g9
(I448
I224
I32
I32
tp768
Rp769
sba(iMap
Tiles
p770
(dp771
g3
g4
sg5
I01
sg6
I15
sg7
I7
sg8
g9
(I480
I224
I32
I32
tp772
Rp773
sba(iMap
Tiles
p774
(dp775
g3
g4
sg5
I01
sg6
I16
sg7
I7
sg8
g9
(I512
I224
I32
I32
tp776
Rp777
sba(iMap
Tiles
p778
(dp779
g3
g4
sg5
I01
sg6
I17
sg7
I7
sg8
g9
(I544
I224
I32
I32
tp780
Rp781
sba(iMap
Tiles
p782
(dp783
g3
g4
sg5
I01
sg6
I18
sg7
I7
sg8
g9
(I576
I224
I32
I32
tp784
Rp785
sba(iMap
Tiles
p786
(dp787
g3
g4
sg5
I01
sg6
I19
sg7
I7
sg8
g9
(I608
I224
I32
I32
tp788
Rp789
sba(iMap
Tiles
p790
(dp791
g3
g4
sg5
I01
sg6
I20
sg7
I7
sg8
g9
(I640
I224
I32
I32
tp792
Rp793
sba(iMap
Tiles
p794
(dp795
g3
g4
sg5
I01
sg6
I21
sg7
I7
sg8
g9
(I672
I224
I32
I32
tp796
Rp797
sba(iMap
Tiles
p798
(dp799
g3
g4
sg5
I01
sg6
I22
sg7
I7
sg8
g9
(I704
I224
I32
I32
tp800
Rp801
sba(iMap
Tiles
p802
(dp803
g3
g4
sg5
I01
sg6
I23
sg7
I7
sg8
g9
(I736
I224
I32
I32
tp804
Rp805
sba(iMap
Tiles
p806
(dp807
g3
g4
sg5
I01
sg6
I24
sg7
I7
sg8
g9
(I768
I224
I32
I32
tp808
Rp809
sba(iMap
Tiles
p810
(dp811
g3
g4
sg5
I01
sg6
I0
sg7
I8
sg8
g9
(I0
I256
I32
I32
tp812
Rp813
sba(iMap
Tiles
p814
(dp815
g3
g4
sg5
I01
sg6
I1
sg7
I8
sg8
g9
(I32
I256
I32
I32
tp816
Rp817
sba(iMap
Tiles
p818
(dp819
g3
g114
sg5
I00
sg6
I2
sg7
I8
sg8
g9
(I64
I256
I32
I32
tp820
Rp821
sba(iMap
Tiles
p822
(dp823
g3
g114
sg5
I00
sg6
I3
sg7
I8
sg8
g9
(I96
I256
I32
I32
tp824
Rp825
sba(iMap
Tiles
p826
(dp827
g3
(I0
I0
I0
tp828
sg5
I00
sg6
I4
sg7
I8
sg8
g9
(I128
I256
I32
I32
tp829
Rp830
sba(iMap
Tiles
p831
(dp832
g3
g4
sg5
I01
sg6
I5
sg7
I8
sg8
g9
(I160
I256
I32
I32
tp833
Rp834
sba(iMap
Tiles
p835
(dp836
g3
g4
sg5
I01
sg6
I6
sg7
I8
sg8
g9
(I192
I256
I32
I32
tp837
Rp838
sba(iMap
Tiles
p839
(dp840
g3
g4
sg5
I01
sg6
I7
sg7
I8
sg8
g9
(I224
I256
I32
I32
tp841
Rp842
sba(iMap
Tiles
p843
(dp844
g3
g4
sg5
I01
sg6
I8
sg7
I8
sg8
g9
(I256
I256
I32
I32
tp845
Rp846
sba(iMap
Tiles
p847
(dp848
g3
g4
sg5
I01
sg6
I9
sg7
I8
sg8
g9
(I288
I256
I32
I32
tp849
Rp850
sba(iMap
Tiles
p851
(dp852
g3
g4
sg5
I01
sg6
I10
sg7
I8
sg8
g9
(I320
I256
I32
I32
tp853
Rp854
sba(iMap
Tiles
p855
(dp856
g3
g4
sg5
I01
sg6
I11
sg7
I8
sg8
g9
(I352
I256
I32
I32
tp857
Rp858
sba(iMap
Tiles
p859
(dp860
g3
g4
sg5
I01
sg6
I12
sg7
I8
sg8
g9
(I384
I256
I32
I32
tp861
Rp862
sba(iMap
Tiles
p863
(dp864
g3
g4
sg5
I01
sg6
I13
sg7
I8
sg8
g9
(I416
I256
I32
I32
tp865
Rp866
sba(iMap
Tiles
p867
(dp868
g3
g4
sg5
I01
sg6
I14
sg7
I8
sg8
g9
(I448
I256
I32
I32
tp869
Rp870
sba(iMap
Tiles
p871
(dp872
g3
g4
sg5
I01
sg6
I15
sg7
I8
sg8
g9
(I480
I256
I32
I32
tp873
Rp874
sba(iMap
Tiles
p875
(dp876
g3
g4
sg5
I01
sg6
I16
sg7
I8
sg8
g9
(I512
I256
I32
I32
tp877
Rp878
sba(iMap
Tiles
p879
(dp880
g3
g4
sg5
I01
sg6
I17
sg7
I8
sg8
g9
(I544
I256
I32
I32
tp881
Rp882
sba(iMap
Tiles
p883
(dp884
g3
g4
sg5
I01
sg6
I18
sg7
I8
sg8
g9
(I576
I256
I32
I32
tp885
Rp886
sba(iMap
Tiles
p887
(dp888
g3
g4
sg5
I01
sg6
I19
sg7
I8
sg8
g9
(I608
I256
I32
I32
tp889
Rp890
sba(iMap
Tiles
p891
(dp892
g3
g4
sg5
I01
sg6
I20
sg7
I8
sg8
g9
(I640
I256
I32
I32
tp893
Rp894
sba(iMap
Tiles
p895
(dp896
g3
g4
sg5
I01
sg6
I21
sg7
I8
sg8
g9
(I672
I256
I32
I32
tp897
Rp898
sba(iMap
Tiles
p899
(dp900
g3
g4
sg5
I01
sg6
I22
sg7
I8
sg8
g9
(I704
I256
I32
I32
tp901
Rp902
sba(iMap
Tiles
p903
(dp904
g3
g4
sg5
I01
sg6
I23
sg7
I8
sg8
g9
(I736
I256
I32
I32
tp905
Rp906
sba(iMap
Tiles
p907
(dp908
g3
g4
sg5
I01
sg6
I24
sg7
I8
sg8
g9
(I768
I256
I32
I32
tp909
Rp910
sba(iMap
Tiles
p911
(dp912
g3
g4
sg5
I01
sg6
I0
sg7
I9
sg8
g9
(I0
I288
I32
I32
tp913
Rp914
sba(iMap
Tiles
p915
(dp916
g3
g4
sg5
I01
sg6
I1
sg7
I9
sg8
g9
(I32
I288
I32
I32
tp917
Rp918
sba(iMap
Tiles
p919
(dp920
g3
g4
sg5
I01
sg6
I2
sg7
I9
sg8
g9
(I64
I288
I32
I32
tp921
Rp922
sba(iMap
Tiles
p923
(dp924
g3
g4
sg5
I01
sg6
I3
sg7
I9
sg8
g9
(I96
I288
I32
I32
tp925
Rp926
sba(iMap
Tiles
p927
(dp928
g3
g828
sg5
I00
sg6
I4
sg7
I9
sg8
g9
(I128
I288
I32
I32
tp929
Rp930
sba(iMap
Tiles
p931
(dp932
g3
g828
sg5
I00
sg6
I5
sg7
I9
sg8
g9
(I160
I288
I32
I32
tp933
Rp934
sba(iMap
Tiles
p935
(dp936
g3
g828
sg5
I00
sg6
I6
sg7
I9
sg8
g9
(I192
I288
I32
I32
tp937
Rp938
sba(iMap
Tiles
p939
(dp940
g3
g828
sg5
I00
sg6
I7
sg7
I9
sg8
g9
(I224
I288
I32
I32
tp941
Rp942
sba(iMap
Tiles
p943
(dp944
g3
g4
sg5
I01
sg6
I8
sg7
I9
sg8
g9
(I256
I288
I32
I32
tp945
Rp946
sba(iMap
Tiles
p947
(dp948
g3
g4
sg5
I01
sg6
I9
sg7
I9
sg8
g9
(I288
I288
I32
I32
tp949
Rp950
sba(iMap
Tiles
p951
(dp952
g3
(I255
I255
I255
tp953
sg5
I01
sg6
I10
sg7
I9
sg8
g9
(I320
I288
I32
I32
tp954
Rp955
sba(iMap
Tiles
p956
(dp957
g3
g4
sg5
I01
sg6
I11
sg7
I9
sg8
g9
(I352
I288
I32
I32
tp958
Rp959
sba(iMap
Tiles
p960
(dp961
g3
g4
sg5
I01
sg6
I12
sg7
I9
sg8
g9
(I384
I288
I32
I32
tp962
Rp963
sba(iMap
Tiles
p964
(dp965
g3
g4
sg5
I01
sg6
I13
sg7
I9
sg8
g9
(I416
I288
I32
I32
tp966
Rp967
sba(iMap
Tiles
p968
(dp969
g3
g4
sg5
I01
sg6
I14
sg7
I9
sg8
g9
(I448
I288
I32
I32
tp970
Rp971
sba(iMap
Tiles
p972
(dp973
g3
g4
sg5
I01
sg6
I15
sg7
I9
sg8
g9
(I480
I288
I32
I32
tp974
Rp975
sba(iMap
Tiles
p976
(dp977
g3
g4
sg5
I01
sg6
I16
sg7
I9
sg8
g9
(I512
I288
I32
I32
tp978
Rp979
sba(iMap
Tiles
p980
(dp981
g3
g4
sg5
I01
sg6
I17
sg7
I9
sg8
g9
(I544
I288
I32
I32
tp982
Rp983
sba(iMap
Tiles
p984
(dp985
g3
g4
sg5
I01
sg6
I18
sg7
I9
sg8
g9
(I576
I288
I32
I32
tp986
Rp987
sba(iMap
Tiles
p988
(dp989
g3
g4
sg5
I01
sg6
I19
sg7
I9
sg8
g9
(I608
I288
I32
I32
tp990
Rp991
sba(iMap
Tiles
p992
(dp993
g3
g4
sg5
I01
sg6
I20
sg7
I9
sg8
g9
(I640
I288
I32
I32
tp994
Rp995
sba(iMap
Tiles
p996
(dp997
g3
g4
sg5
I01
sg6
I21
sg7
I9
sg8
g9
(I672
I288
I32
I32
tp998
Rp999
sba(iMap
Tiles
p1000
(dp1001
g3
g4
sg5
I01
sg6
I22
sg7
I9
sg8
g9
(I704
I288
I32
I32
tp1002
Rp1003
sba(iMap
Tiles
p1004
(dp1005
g3
g4
sg5
I01
sg6
I23
sg7
I9
sg8
g9
(I736
I288
I32
I32
tp1006
Rp1007
sba(iMap
Tiles
p1008
(dp1009
g3
g4
sg5
I01
sg6
I24
sg7
I9
sg8
g9
(I768
I288
I32
I32
tp1010
Rp1011
sba(iMap
Tiles
p1012
(dp1013
g3
g4
sg5
I01
sg6
I0
sg7
I10
sg8
g9
(I0
I320
I32
I32
tp1014
Rp1015
sba(iMap
Tiles
p1016
(dp1017
g3
g4
sg5
I01
sg6
I1
sg7
I10
sg8
g9
(I32
I320
I32
I32
tp1018
Rp1019
sba(iMap
Tiles
p1020
(dp1021
g3
g4
sg5
I01
sg6
I2
sg7
I10
sg8
g9
(I64
I320
I32
I32
tp1022
Rp1023
sba(iMap
Tiles
p1024
(dp1025
g3
g4
sg5
I01
sg6
I3
sg7
I10
sg8
g9
(I96
I320
I32
I32
tp1026
Rp1027
sba(iMap
Tiles
p1028
(dp1029
g3
g4
sg5
I01
sg6
I4
sg7
I10
sg8
g9
(I128
I320
I32
I32
tp1030
Rp1031
sba(iMap
Tiles
p1032
(dp1033
g3
g828
sg5
I00
sg6
I5
sg7
I10
sg8
g9
(I160
I320
I32
I32
tp1034
Rp1035
sba(iMap
Tiles
p1036
(dp1037
g3
g828
sg5
I00
sg6
I6
sg7
I10
sg8
g9
(I192
I320
I32
I32
tp1038
Rp1039
sba(iMap
Tiles
p1040
(dp1041
g3
g828
sg5
I00
sg6
I7
sg7
I10
sg8
g9
(I224
I320
I32
I32
tp1042
Rp1043
sba(iMap
Tiles
p1044
(dp1045
g3
g828
sg5
I00
sg6
I8
sg7
I10
sg8
g9
(I256
I320
I32
I32
tp1046
Rp1047
sba(iMap
Tiles
p1048
(dp1049
g3
g4
sg5
I01
sg6
I9
sg7
I10
sg8
g9
(I288
I320
I32
I32
tp1050
Rp1051
sba(iMap
Tiles
p1052
(dp1053
g3
g4
sg5
I01
sg6
I10
sg7
I10
sg8
g9
(I320
I320
I32
I32
tp1054
Rp1055
sba(iMap
Tiles
p1056
(dp1057
g3
g4
sg5
I01
sg6
I11
sg7
I10
sg8
g9
(I352
I320
I32
I32
tp1058
Rp1059
sba(iMap
Tiles
p1060
(dp1061
g3
g4
sg5
I01
sg6
I12
sg7
I10
sg8
g9
(I384
I320
I32
I32
tp1062
Rp1063
sba(iMap
Tiles
p1064
(dp1065
g3
g4
sg5
I01
sg6
I13
sg7
I10
sg8
g9
(I416
I320
I32
I32
tp1066
Rp1067
sba(iMap
Tiles
p1068
(dp1069
g3
g4
sg5
I01
sg6
I14
sg7
I10
sg8
g9
(I448
I320
I32
I32
tp1070
Rp1071
sba(iMap
Tiles
p1072
(dp1073
g3
g4
sg5
I01
sg6
I15
sg7
I10
sg8
g9
(I480
I320
I32
I32
tp1074
Rp1075
sba(iMap
Tiles
p1076
(dp1077
g3
g4
sg5
I01
sg6
I16
sg7
I10
sg8
g9
(I512
I320
I32
I32
tp1078
Rp1079
sba(iMap
Tiles
p1080
(dp1081
g3
g4
sg5
I01
sg6
I17
sg7
I10
sg8
g9
(I544
I320
I32
I32
tp1082
Rp1083
sba(iMap
Tiles
p1084
(dp1085
g3
g4
sg5
I01
sg6
I18
sg7
I10
sg8
g9
(I576
I320
I32
I32
tp1086
Rp1087
sba(iMap
Tiles
p1088
(dp1089
g3
g4
sg5
I01
sg6
I19
sg7
I10
sg8
g9
(I608
I320
I32
I32
tp1090
Rp1091
sba(iMap
Tiles
p1092
(dp1093
g3
g4
sg5
I01
sg6
I20
sg7
I10
sg8
g9
(I640
I320
I32
I32
tp1094
Rp1095
sba(iMap
Tiles
p1096
(dp1097
g3
g4
sg5
I01
sg6
I21
sg7
I10
sg8
g9
(I672
I320
I32
I32
tp1098
Rp1099
sba(iMap
Tiles
p1100
(dp1101
g3
g4
sg5
I01
sg6
I22
sg7
I10
sg8
g9
(I704
I320
I32
I32
tp1102
Rp1103
sba(iMap
Tiles
p1104
(dp1105
g3
g4
sg5
I01
sg6
I23
sg7
I10
sg8
g9
(I736
I320
I32
I32
tp1106
Rp1107
sba(iMap
Tiles
p1108
(dp1109
g3
g4
sg5
I01
sg6
I24
sg7
I10
sg8
g9
(I768
I320
I32
I32
tp1110
Rp1111
sba(iMap
Tiles
p1112
(dp1113
g3
g4
sg5
I01
sg6
I0
sg7
I11
sg8
g9
(I0
I352
I32
I32
tp1114
Rp1115
sba(iMap
Tiles
p1116
(dp1117
g3
g4
sg5
I01
sg6
I1
sg7
I11
sg8
g9
(I32
I352
I32
I32
tp1118
Rp1119
sba(iMap
Tiles
p1120
(dp1121
g3
g4
sg5
I01
sg6
I2
sg7
I11
sg8
g9
(I64
I352
I32
I32
tp1122
Rp1123
sba(iMap
Tiles
p1124
(dp1125
g3
g4
sg5
I01
sg6
I3
sg7
I11
sg8
g9
(I96
I352
I32
I32
tp1126
Rp1127
sba(iMap
Tiles
p1128
(dp1129
g3
g4
sg5
I01
sg6
I4
sg7
I11
sg8
g9
(I128
I352
I32
I32
tp1130
Rp1131
sba(iMap
Tiles
p1132
(dp1133
g3
g4
sg5
I01
sg6
I5
sg7
I11
sg8
g9
(I160
I352
I32
I32
tp1134
Rp1135
sba(iMap
Tiles
p1136
(dp1137
g3
g828
sg5
I00
sg6
I6
sg7
I11
sg8
g9
(I192
I352
I32
I32
tp1138
Rp1139
sba(iMap
Tiles
p1140
(dp1141
g3
g828
sg5
I00
sg6
I7
sg7
I11
sg8
g9
(I224
I352
I32
I32
tp1142
Rp1143
sba(iMap
Tiles
p1144
(dp1145
g3
g4
sg5
I01
sg6
I8
sg7
I11
sg8
g9
(I256
I352
I32
I32
tp1146
Rp1147
sba(iMap
Tiles
p1148
(dp1149
g3
g4
sg5
I01
sg6
I9
sg7
I11
sg8
g9
(I288
I352
I32
I32
tp1150
Rp1151
sba(iMap
Tiles
p1152
(dp1153
g3
g4
sg5
I01
sg6
I10
sg7
I11
sg8
g9
(I320
I352
I32
I32
tp1154
Rp1155
sba(iMap
Tiles
p1156
(dp1157
g3
g4
sg5
I01
sg6
I11
sg7
I11
sg8
g9
(I352
I352
I32
I32
tp1158
Rp1159
sba(iMap
Tiles
p1160
(dp1161
g3
g4
sg5
I01
sg6
I12
sg7
I11
sg8
g9
(I384
I352
I32
I32
tp1162
Rp1163
sba(iMap
Tiles
p1164
(dp1165
g3
g4
sg5
I01
sg6
I13
sg7
I11
sg8
g9
(I416
I352
I32
I32
tp1166
Rp1167
sba(iMap
Tiles
p1168
(dp1169
g3
g4
sg5
I01
sg6
I14
sg7
I11
sg8
g9
(I448
I352
I32
I32
tp1170
Rp1171
sba(iMap
Tiles
p1172
(dp1173
g3
g4
sg5
I01
sg6
I15
sg7
I11
sg8
g9
(I480
I352
I32
I32
tp1174
Rp1175
sba(iMap
Tiles
p1176
(dp1177
g3
g4
sg5
I01
sg6
I16
sg7
I11
sg8
g9
(I512
I352
I32
I32
tp1178
Rp1179
sba(iMap
Tiles
p1180
(dp1181
g3
g4
sg5
I01
sg6
I17
sg7
I11
sg8
g9
(I544
I352
I32
I32
tp1182
Rp1183
sba(iMap
Tiles
p1184
(dp1185
g3
g4
sg5
I01
sg6
I18
sg7
I11
sg8
g9
(I576
I352
I32
I32
tp1186
Rp1187
sba(iMap
Tiles
p1188
(dp1189
g3
g4
sg5
I01
sg6
I19
sg7
I11
sg8
g9
(I608
I352
I32
I32
tp1190
Rp1191
sba(iMap
Tiles
p1192
(dp1193
g3
g4
sg5
I01
sg6
I20
sg7
I11
sg8
g9
(I640
I352
I32
I32
tp1194
Rp1195
sba(iMap
Tiles
p1196
(dp1197
g3
g4
sg5
I01
sg6
I21
sg7
I11
sg8
g9
(I672
I352
I32
I32
tp1198
Rp1199
sba(iMap
Tiles
p1200
(dp1201
g3
g4
sg5
I01
sg6
I22
sg7
I11
sg8
g9
(I704
I352
I32
I32
tp1202
Rp1203
sba(iMap
Tiles
p1204
(dp1205
g3
g4
sg5
I01
sg6
I23
sg7
I11
sg8
g9
(I736
I352
I32
I32
tp1206
Rp1207
sba(iMap
Tiles
p1208
(dp1209
g3
g4
sg5
I01
sg6
I24
sg7
I11
sg8
g9
(I768
I352
I32
I32
tp1210
Rp1211
sba(iMap
Tiles
p1212
(dp1213
g3
g4
sg5
I01
sg6
I0
sg7
I12
sg8
g9
(I0
I384
I32
I32
tp1214
Rp1215
sba(iMap
Tiles
p1216
(dp1217
g3
g4
sg5
I01
sg6
I1
sg7
I12
sg8
g9
(I32
I384
I32
I32
tp1218
Rp1219
sba(iMap
Tiles
p1220
(dp1221
g3
g4
sg5
I01
sg6
I2
sg7
I12
sg8
g9
(I64
I384
I32
I32
tp1222
Rp1223
sba(iMap
Tiles
p1224
(dp1225
g3
g4
sg5
I01
sg6
I3
sg7
I12
sg8
g9
(I96
I384
I32
I32
tp1226
Rp1227
sba(iMap
Tiles
p1228
(dp1229
g3
g4
sg5
I01
sg6
I4
sg7
I12
sg8
g9
(I128
I384
I32
I32
tp1230
Rp1231
sba(iMap
Tiles
p1232
(dp1233
g3
g4
sg5
I01
sg6
I5
sg7
I12
sg8
g9
(I160
I384
I32
I32
tp1234
Rp1235
sba(iMap
Tiles
p1236
(dp1237
g3
g828
sg5
I00
sg6
I6
sg7
I12
sg8
g9
(I192
I384
I32
I32
tp1238
Rp1239
sba(iMap
Tiles
p1240
(dp1241
g3
g828
sg5
I00
sg6
I7
sg7
I12
sg8
g9
(I224
I384
I32
I32
tp1242
Rp1243
sba(iMap
Tiles
p1244
(dp1245
g3
(I0
I0
I0
tp1246
sg5
I00
sg6
I8
sg7
I12
sg8
g9
(I256
I384
I32
I32
tp1247
Rp1248
sba(iMap
Tiles
p1249
(dp1250
g3
g4
sg5
I01
sg6
I9
sg7
I12
sg8
g9
(I288
I384
I32
I32
tp1251
Rp1252
sba(iMap
Tiles
p1253
(dp1254
g3
g4
sg5
I01
sg6
I10
sg7
I12
sg8
g9
(I320
I384
I32
I32
tp1255
Rp1256
sba(iMap
Tiles
p1257
(dp1258
g3
g4
sg5
I01
sg6
I11
sg7
I12
sg8
g9
(I352
I384
I32
I32
tp1259
Rp1260
sba(iMap
Tiles
p1261
(dp1262
g3
g4
sg5
I01
sg6
I12
sg7
I12
sg8
g9
(I384
I384
I32
I32
tp1263
Rp1264
sba(iMap
Tiles
p1265
(dp1266
g3
g4
sg5
I01
sg6
I13
sg7
I12
sg8
g9
(I416
I384
I32
I32
tp1267
Rp1268
sba(iMap
Tiles
p1269
(dp1270
g3
g4
sg5
I01
sg6
I14
sg7
I12
sg8
g9
(I448
I384
I32
I32
tp1271
Rp1272
sba(iMap
Tiles
p1273
(dp1274
g3
g4
sg5
I01
sg6
I15
sg7
I12
sg8
g9
(I480
I384
I32
I32
tp1275
Rp1276
sba(iMap
Tiles
p1277
(dp1278
g3
g4
sg5
I01
sg6
I16
sg7
I12
sg8
g9
(I512
I384
I32
I32
tp1279
Rp1280
sba(iMap
Tiles
p1281
(dp1282
g3
g4
sg5
I01
sg6
I17
sg7
I12
sg8
g9
(I544
I384
I32
I32
tp1283
Rp1284
sba(iMap
Tiles
p1285
(dp1286
g3
g4
sg5
I01
sg6
I18
sg7
I12
sg8
g9
(I576
I384
I32
I32
tp1287
Rp1288
sba(iMap
Tiles
p1289
(dp1290
g3
g4
sg5
I01
sg6
I19
sg7
I12
sg8
g9
(I608
I384
I32
I32
tp1291
Rp1292
sba(iMap
Tiles
p1293
(dp1294
g3
g4
sg5
I01
sg6
I20
sg7
I12
sg8
g9
(I640
I384
I32
I32
tp1295
Rp1296
sba(iMap
Tiles
p1297
(dp1298
g3
g4
sg5
I01
sg6
I21
sg7
I12
sg8
g9
(I672
I384
I32
I32
tp1299
Rp1300
sba(iMap
Tiles
p1301
(dp1302
g3
g4
sg5
I01
sg6
I22
sg7
I12
sg8
g9
(I704
I384
I32
I32
tp1303
Rp1304
sba(iMap
Tiles
p1305
(dp1306
g3
g4
sg5
I01
sg6
I23
sg7
I12
sg8
g9
(I736
I384
I32
I32
tp1307
Rp1308
sba(iMap
Tiles
p1309
(dp1310
g3
g4
sg5
I01
sg6
I24
sg7
I12
sg8
g9
(I768
I384
I32
I32
tp1311
Rp1312
sba(iMap
Tiles
p1313
(dp1314
g3
g4
sg5
I01
sg6
I0
sg7
I13
sg8
g9
(I0
I416
I32
I32
tp1315
Rp1316
sba(iMap
Tiles
p1317
(dp1318
g3
g4
sg5
I01
sg6
I1
sg7
I13
sg8
g9
(I32
I416
I32
I32
tp1319
Rp1320
sba(iMap
Tiles
p1321
(dp1322
g3
g4
sg5
I01
sg6
I2
sg7
I13
sg8
g9
(I64
I416
I32
I32
tp1323
Rp1324
sba(iMap
Tiles
p1325
(dp1326
g3
g4
sg5
I01
sg6
I3
sg7
I13
sg8
g9
(I96
I416
I32
I32
tp1327
Rp1328
sba(iMap
Tiles
p1329
(dp1330
g3
g4
sg5
I01
sg6
I4
sg7
I13
sg8
g9
(I128
I416
I32
I32
tp1331
Rp1332
sba(iMap
Tiles
p1333
(dp1334
g3
g4
sg5
I01
sg6
I5
sg7
I13
sg8
g9
(I160
I416
I32
I32
tp1335
Rp1336
sba(iMap
Tiles
p1337
(dp1338
g3
g4
sg5
I01
sg6
I6
sg7
I13
sg8
g9
(I192
I416
I32
I32
tp1339
Rp1340
sba(iMap
Tiles
p1341
(dp1342
g3
g1246
sg5
I00
sg6
I7
sg7
I13
sg8
g9
(I224
I416
I32
I32
tp1343
Rp1344
sba(iMap
Tiles
p1345
(dp1346
g3
g1246
sg5
I00
sg6
I8
sg7
I13
sg8
g9
(I256
I416
I32
I32
tp1347
Rp1348
sba(iMap
Tiles
p1349
(dp1350
g3
g4
sg5
I01
sg6
I9
sg7
I13
sg8
g9
(I288
I416
I32
I32
tp1351
Rp1352
sba(iMap
Tiles
p1353
(dp1354
g3
g4
sg5
I01
sg6
I10
sg7
I13
sg8
g9
(I320
I416
I32
I32
tp1355
Rp1356
sba(iMap
Tiles
p1357
(dp1358
g3
g4
sg5
I01
sg6
I11
sg7
I13
sg8
g9
(I352
I416
I32
I32
tp1359
Rp1360
sba(iMap
Tiles
p1361
(dp1362
g3
g4
sg5
I01
sg6
I12
sg7
I13
sg8
g9
(I384
I416
I32
I32
tp1363
Rp1364
sba(iMap
Tiles
p1365
(dp1366
g3
g4
sg5
I01
sg6
I13
sg7
I13
sg8
g9
(I416
I416
I32
I32
tp1367
Rp1368
sba(iMap
Tiles
p1369
(dp1370
g3
g4
sg5
I01
sg6
I14
sg7
I13
sg8
g9
(I448
I416
I32
I32
tp1371
Rp1372
sba(iMap
Tiles
p1373
(dp1374
g3
g4
sg5
I01
sg6
I15
sg7
I13
sg8
g9
(I480
I416
I32
I32
tp1375
Rp1376
sba(iMap
Tiles
p1377
(dp1378
g3
g4
sg5
I01
sg6
I16
sg7
I13
sg8
g9
(I512
I416
I32
I32
tp1379
Rp1380
sba(iMap
Tiles
p1381
(dp1382
g3
g4
sg5
I01
sg6
I17
sg7
I13
sg8
g9
(I544
I416
I32
I32
tp1383
Rp1384
sba(iMap
Tiles
p1385
(dp1386
g3
g4
sg5
I01
sg6
I18
sg7
I13
sg8
g9
(I576
I416
I32
I32
tp1387
Rp1388
sba(iMap
Tiles
p1389
(dp1390
g3
g4
sg5
I01
sg6
I19
sg7
I13
sg8
g9
(I608
I416
I32
I32
tp1391
Rp1392
sba(iMap
Tiles
p1393
(dp1394
g3
g4
sg5
I01
sg6
I20
sg7
I13
sg8
g9
(I640
I416
I32
I32
tp1395
Rp1396
sba(iMap
Tiles
p1397
(dp1398
g3
g4
sg5
I01
sg6
I21
sg7
I13
sg8
g9
(I672
I416
I32
I32
tp1399
Rp1400
sba(iMap
Tiles
p1401
(dp1402
g3
g4
sg5
I01
sg6
I22
sg7
I13
sg8
g9
(I704
I416
I32
I32
tp1403
Rp1404
sba(iMap
Tiles
p1405
(dp1406
g3
g4
sg5
I01
sg6
I23
sg7
I13
sg8
g9
(I736
I416
I32
I32
tp1407
Rp1408
sba(iMap
Tiles
p1409
(dp1410
g3
g4
sg5
I01
sg6
I24
sg7
I13
sg8
g9
(I768
I416
I32
I32
tp1411
Rp1412
sba(iMap
Tiles
p1413
(dp1414
g3
g4
sg5
I01
sg6
I0
sg7
I14
sg8
g9
(I0
I448
I32
I32
tp1415
Rp1416
sba(iMap
Tiles
p1417
(dp1418
g3
g4
sg5
I01
sg6
I1
sg7
I14
sg8
g9
(I32
I448
I32
I32
tp1419
Rp1420
sba(iMap
Tiles
p1421
(dp1422
g3
g4
sg5
I01
sg6
I2
sg7
I14
sg8
g9
(I64
I448
I32
I32
tp1423
Rp1424
sba(iMap
Tiles
p1425
(dp1426
g3
g4
sg5
I01
sg6
I3
sg7
I14
sg8
g9
(I96
I448
I32
I32
tp1427
Rp1428
sba(iMap
Tiles
p1429
(dp1430
g3
g4
sg5
I01
sg6
I4
sg7
I14
sg8
g9
(I128
I448
I32
I32
tp1431
Rp1432
sba(iMap
Tiles
p1433
(dp1434
g3
g4
sg5
I01
sg6
I5
sg7
I14
sg8
g9
(I160
I448
I32
I32
tp1435
Rp1436
sba(iMap
Tiles
p1437
(dp1438
g3
g4
sg5
I01
sg6
I6
sg7
I14
sg8
g9
(I192
I448
I32
I32
tp1439
Rp1440
sba(iMap
Tiles
p1441
(dp1442
g3
g4
sg5
I01
sg6
I7
sg7
I14
sg8
g9
(I224
I448
I32
I32
tp1443
Rp1444
sba(iMap
Tiles
p1445
(dp1446
g3
g1246
sg5
I00
sg6
I8
sg7
I14
sg8
g9
(I256
I448
I32
I32
tp1447
Rp1448
sba(iMap
Tiles
p1449
(dp1450
g3
g1246
sg5
I00
sg6
I9
sg7
I14
sg8
g9
(I288
I448
I32
I32
tp1451
Rp1452
sba(iMap
Tiles
p1453
(dp1454
g3
g4
sg5
I01
sg6
I10
sg7
I14
sg8
g9
(I320
I448
I32
I32
tp1455
Rp1456
sba(iMap
Tiles
p1457
(dp1458
g3
g4
sg5
I01
sg6
I11
sg7
I14
sg8
g9
(I352
I448
I32
I32
tp1459
Rp1460
sba(iMap
Tiles
p1461
(dp1462
g3
g4
sg5
I01
sg6
I12
sg7
I14
sg8
g9
(I384
I448
I32
I32
tp1463
Rp1464
sba(iMap
Tiles
p1465
(dp1466
g3
g4
sg5
I01
sg6
I13
sg7
I14
sg8
g9
(I416
I448
I32
I32
tp1467
Rp1468
sba(iMap
Tiles
p1469
(dp1470
g3
g4
sg5
I01
sg6
I14
sg7
I14
sg8
g9
(I448
I448
I32
I32
tp1471
Rp1472
sba(iMap
Tiles
p1473
(dp1474
g3
g4
sg5
I01
sg6
I15
sg7
I14
sg8
g9
(I480
I448
I32
I32
tp1475
Rp1476
sba(iMap
Tiles
p1477
(dp1478
g3
g4
sg5
I01
sg6
I16
sg7
I14
sg8
g9
(I512
I448
I32
I32
tp1479
Rp1480
sba(iMap
Tiles
p1481
(dp1482
g3
g4
sg5
I01
sg6
I17
sg7
I14
sg8
g9
(I544
I448
I32
I32
tp1483
Rp1484
sba(iMap
Tiles
p1485
(dp1486
g3
g4
sg5
I01
sg6
I18
sg7
I14
sg8
g9
(I576
I448
I32
I32
tp1487
Rp1488
sba(iMap
Tiles
p1489
(dp1490
g3
g4
sg5
I01
sg6
I19
sg7
I14
sg8
g9
(I608
I448
I32
I32
tp1491
Rp1492
sba(iMap
Tiles
p1493
(dp1494
g3
g4
sg5
I01
sg6
I20
sg7
I14
sg8
g9
(I640
I448
I32
I32
tp1495
Rp1496
sba(iMap
Tiles
p1497
(dp1498
g3
g4
sg5
I01
sg6
I21
sg7
I14
sg8
g9
(I672
I448
I32
I32
tp1499
Rp1500
sba(iMap
Tiles
p1501
(dp1502
g3
g4
sg5
I01
sg6
I22
sg7
I14
sg8
g9
(I704
I448
I32
I32
tp1503
Rp1504
sba(iMap
Tiles
p1505
(dp1506
g3
g4
sg5
I01
sg6
I23
sg7
I14
sg8
g9
(I736
I448
I32
I32
tp1507
Rp1508
sba(iMap
Tiles
p1509
(dp1510
g3
g4
sg5
I01
sg6
I24
sg7
I14
sg8
g9
(I768
I448
I32
I32
tp1511
Rp1512
sba(iMap
Tiles
p1513
(dp1514
g3
g4
sg5
I01
sg6
I0
sg7
I15
sg8
g9
(I0
I480
I32
I32
tp1515
Rp1516
sba(iMap
Tiles
p1517
(dp1518
g3
g4
sg5
I01
sg6
I1
sg7
I15
sg8
g9
(I32
I480
I32
I32
tp1519
Rp1520
sba(iMap
Tiles
p1521
(dp1522
g3
g4
sg5
I01
sg6
I2
sg7
I15
sg8
g9
(I64
I480
I32
I32
tp1523
Rp1524
sba(iMap
Tiles
p1525
(dp1526
g3
g4
sg5
I01
sg6
I3
sg7
I15
sg8
g9
(I96
I480
I32
I32
tp1527
Rp1528
sba(iMap
Tiles
p1529
(dp1530
g3
g4
sg5
I01
sg6
I4
sg7
I15
sg8
g9
(I128
I480
I32
I32
tp1531
Rp1532
sba(iMap
Tiles
p1533
(dp1534
g3
g4
sg5
I01
sg6
I5
sg7
I15
sg8
g9
(I160
I480
I32
I32
tp1535
Rp1536
sba(iMap
Tiles
p1537
(dp1538
g3
g4
sg5
I01
sg6
I6
sg7
I15
sg8
g9
(I192
I480
I32
I32
tp1539
Rp1540
sba(iMap
Tiles
p1541
(dp1542
g3
g4
sg5
I01
sg6
I7
sg7
I15
sg8
g9
(I224
I480
I32
I32
tp1543
Rp1544
sba(iMap
Tiles
p1545
(dp1546
g3
g4
sg5
I01
sg6
I8
sg7
I15
sg8
g9
(I256
I480
I32
I32
tp1547
Rp1548
sba(iMap
Tiles
p1549
(dp1550
g3
g1246
sg5
I00
sg6
I9
sg7
I15
sg8
g9
(I288
I480
I32
I32
tp1551
Rp1552
sba(iMap
Tiles
p1553
(dp1554
g3
g1246
sg5
I00
sg6
I10
sg7
I15
sg8
g9
(I320
I480
I32
I32
tp1555
Rp1556
sba(iMap
Tiles
p1557
(dp1558
g3
g4
sg5
I01
sg6
I11
sg7
I15
sg8
g9
(I352
I480
I32
I32
tp1559
Rp1560
sba(iMap
Tiles
p1561
(dp1562
g3
g4
sg5
I01
sg6
I12
sg7
I15
sg8
g9
(I384
I480
I32
I32
tp1563
Rp1564
sba(iMap
Tiles
p1565
(dp1566
g3
g4
sg5
I01
sg6
I13
sg7
I15
sg8
g9
(I416
I480
I32
I32
tp1567
Rp1568
sba(iMap
Tiles
p1569
(dp1570
g3
g4
sg5
I01
sg6
I14
sg7
I15
sg8
g9
(I448
I480
I32
I32
tp1571
Rp1572
sba(iMap
Tiles
p1573
(dp1574
g3
g4
sg5
I01
sg6
I15
sg7
I15
sg8
g9
(I480
I480
I32
I32
tp1575
Rp1576
sba(iMap
Tiles
p1577
(dp1578
g3
g4
sg5
I01
sg6
I16
sg7
I15
sg8
g9
(I512
I480
I32
I32
tp1579
Rp1580
sba(iMap
Tiles
p1581
(dp1582
g3
g4
sg5
I01
sg6
I17
sg7
I15
sg8
g9
(I544
I480
I32
I32
tp1583
Rp1584
sba(iMap
Tiles
p1585
(dp1586
g3
g4
sg5
I01
sg6
I18
sg7
I15
sg8
g9
(I576
I480
I32
I32
tp1587
Rp1588
sba(iMap
Tiles
p1589
(dp1590
g3
g4
sg5
I01
sg6
I19
sg7
I15
sg8
g9
(I608
I480
I32
I32
tp1591
Rp1592
sba(iMap
Tiles
p1593
(dp1594
g3
g4
sg5
I01
sg6
I20
sg7
I15
sg8
g9
(I640
I480
I32
I32
tp1595
Rp1596
sba(iMap
Tiles
p1597
(dp1598
g3
g4
sg5
I01
sg6
I21
sg7
I15
sg8
g9
(I672
I480
I32
I32
tp1599
Rp1600
sba(iMap
Tiles
p1601
(dp1602
g3
g4
sg5
I01
sg6
I22
sg7
I15
sg8
g9
(I704
I480
I32
I32
tp1603
Rp1604
sba(iMap
Tiles
p1605
(dp1606
g3
g4
sg5
I01
sg6
I23
sg7
I15
sg8
g9
(I736
I480
I32
I32
tp1607
Rp1608
sba(iMap
Tiles
p1609
(dp1610
g3
g4
sg5
I01
sg6
I24
sg7
I15
sg8
g9
(I768
I480
I32
I32
tp1611
Rp1612
sba(iMap
Tiles
p1613
(dp1614
g3
g4
sg5
I01
sg6
I0
sg7
I16
sg8
g9
(I0
I512
I32
I32
tp1615
Rp1616
sba(iMap
Tiles
p1617
(dp1618
g3
g4
sg5
I01
sg6
I1
sg7
I16
sg8
g9
(I32
I512
I32
I32
tp1619
Rp1620
sba(iMap
Tiles
p1621
(dp1622
g3
g4
sg5
I01
sg6
I2
sg7
I16
sg8
g9
(I64
I512
I32
I32
tp1623
Rp1624
sba(iMap
Tiles
p1625
(dp1626
g3
g4
sg5
I01
sg6
I3
sg7
I16
sg8
g9
(I96
I512
I32
I32
tp1627
Rp1628
sba(iMap
Tiles
p1629
(dp1630
g3
g4
sg5
I01
sg6
I4
sg7
I16
sg8
g9
(I128
I512
I32
I32
tp1631
Rp1632
sba(iMap
Tiles
p1633
(dp1634
g3
g4
sg5
I01
sg6
I5
sg7
I16
sg8
g9
(I160
I512
I32
I32
tp1635
Rp1636
sba(iMap
Tiles
p1637
(dp1638
g3
g4
sg5
I01
sg6
I6
sg7
I16
sg8
g9
(I192
I512
I32
I32
tp1639
Rp1640
sba(iMap
Tiles
p1641
(dp1642
g3
g4
sg5
I01
sg6
I7
sg7
I16
sg8
g9
(I224
I512
I32
I32
tp1643
Rp1644
sba(iMap
Tiles
p1645
(dp1646
g3
g4
sg5
I01
sg6
I8
sg7
I16
sg8
g9
(I256
I512
I32
I32
tp1647
Rp1648
sba(iMap
Tiles
p1649
(dp1650
g3
g4
sg5
I01
sg6
I9
sg7
I16
sg8
g9
(I288
I512
I32
I32
tp1651
Rp1652
sba(iMap
Tiles
p1653
(dp1654
g3
g1246
sg5
I00
sg6
I10
sg7
I16
sg8
g9
(I320
I512
I32
I32
tp1655
Rp1656
sba(iMap
Tiles
p1657
(dp1658
g3
g1246
sg5
I00
sg6
I11
sg7
I16
sg8
g9
(I352
I512
I32
I32
tp1659
Rp1660
sba(iMap
Tiles
p1661
(dp1662
g3
g4
sg5
I01
sg6
I12
sg7
I16
sg8
g9
(I384
I512
I32
I32
tp1663
Rp1664
sba(iMap
Tiles
p1665
(dp1666
g3
g4
sg5
I01
sg6
I13
sg7
I16
sg8
g9
(I416
I512
I32
I32
tp1667
Rp1668
sba(iMap
Tiles
p1669
(dp1670
g3
g4
sg5
I01
sg6
I14
sg7
I16
sg8
g9
(I448
I512
I32
I32
tp1671
Rp1672
sba(iMap
Tiles
p1673
(dp1674
g3
g4
sg5
I01
sg6
I15
sg7
I16
sg8
g9
(I480
I512
I32
I32
tp1675
Rp1676
sba(iMap
Tiles
p1677
(dp1678
g3
g4
sg5
I01
sg6
I16
sg7
I16
sg8
g9
(I512
I512
I32
I32
tp1679
Rp1680
sba(iMap
Tiles
p1681
(dp1682
g3
g4
sg5
I01
sg6
I17
sg7
I16
sg8
g9
(I544
I512
I32
I32
tp1683
Rp1684
sba(iMap
Tiles
p1685
(dp1686
g3
g4
sg5
I01
sg6
I18
sg7
I16
sg8
g9
(I576
I512
I32
I32
tp1687
Rp1688
sba(iMap
Tiles
p1689
(dp1690
g3
g4
sg5
I01
sg6
I19
sg7
I16
sg8
g9
(I608
I512
I32
I32
tp1691
Rp1692
sba(iMap
Tiles
p1693
(dp1694
g3
g4
sg5
I01
sg6
I20
sg7
I16
sg8
g9
(I640
I512
I32
I32
tp1695
Rp1696
sba(iMap
Tiles
p1697
(dp1698
g3
g4
sg5
I01
sg6
I21
sg7
I16
sg8
g9
(I672
I512
I32
I32
tp1699
Rp1700
sba(iMap
Tiles
p1701
(dp1702
g3
g4
sg5
I01
sg6
I22
sg7
I16
sg8
g9
(I704
I512
I32
I32
tp1703
Rp1704
sba(iMap
Tiles
p1705
(dp1706
g3
g4
sg5
I01
sg6
I23
sg7
I16
sg8
g9
(I736
I512
I32
I32
tp1707
Rp1708
sba(iMap
Tiles
p1709
(dp1710
g3
g4
sg5
I01
sg6
I24
sg7
I16
sg8
g9
(I768
I512
I32
I32
tp1711
Rp1712
sba(iMap
Tiles
p1713
(dp1714
g3
g4
sg5
I01
sg6
I0
sg7
I17
sg8
g9
(I0
I544
I32
I32
tp1715
Rp1716
sba(iMap
Tiles
p1717
(dp1718
g3
g4
sg5
I01
sg6
I1
sg7
I17
sg8
g9
(I32
I544
I32
I32
tp1719
Rp1720
sba(iMap
Tiles
p1721
(dp1722
g3
g4
sg5
I01
sg6
I2
sg7
I17
sg8
g9
(I64
I544
I32
I32
tp1723
Rp1724
sba(iMap
Tiles
p1725
(dp1726
g3
g4
sg5
I01
sg6
I3
sg7
I17
sg8
g9
(I96
I544
I32
I32
tp1727
Rp1728
sba(iMap
Tiles
p1729
(dp1730
g3
g4
sg5
I01
sg6
I4
sg7
I17
sg8
g9
(I128
I544
I32
I32
tp1731
Rp1732
sba(iMap
Tiles
p1733
(dp1734
g3
g4
sg5
I01
sg6
I5
sg7
I17
sg8
g9
(I160
I544
I32
I32
tp1735
Rp1736
sba(iMap
Tiles
p1737
(dp1738
g3
g4
sg5
I01
sg6
I6
sg7
I17
sg8
g9
(I192
I544
I32
I32
tp1739
Rp1740
sba(iMap
Tiles
p1741
(dp1742
g3
g4
sg5
I01
sg6
I7
sg7
I17
sg8
g9
(I224
I544
I32
I32
tp1743
Rp1744
sba(iMap
Tiles
p1745
(dp1746
g3
g4
sg5
I01
sg6
I8
sg7
I17
sg8
g9
(I256
I544
I32
I32
tp1747
Rp1748
sba(iMap
Tiles
p1749
(dp1750
g3
g4
sg5
I01
sg6
I9
sg7
I17
sg8
g9
(I288
I544
I32
I32
tp1751
Rp1752
sba(iMap
Tiles
p1753
(dp1754
g3
g4
sg5
I01
sg6
I10
sg7
I17
sg8
g9
(I320
I544
I32
I32
tp1755
Rp1756
sba(iMap
Tiles
p1757
(dp1758
g3
g1246
sg5
I00
sg6
I11
sg7
I17
sg8
g9
(I352
I544
I32
I32
tp1759
Rp1760
sba(iMap
Tiles
p1761
(dp1762
g3
g1246
sg5
I00
sg6
I12
sg7
I17
sg8
g9
(I384
I544
I32
I32
tp1763
Rp1764
sba(iMap
Tiles
p1765
(dp1766
g3
g4
sg5
I01
sg6
I13
sg7
I17
sg8
g9
(I416
I544
I32
I32
tp1767
Rp1768
sba(iMap
Tiles
p1769
(dp1770
g3
g4
sg5
I01
sg6
I14
sg7
I17
sg8
g9
(I448
I544
I32
I32
tp1771
Rp1772
sba(iMap
Tiles
p1773
(dp1774
g3
g4
sg5
I01
sg6
I15
sg7
I17
sg8
g9
(I480
I544
I32
I32
tp1775
Rp1776
sba(iMap
Tiles
p1777
(dp1778
g3
g4
sg5
I01
sg6
I16
sg7
I17
sg8
g9
(I512
I544
I32
I32
tp1779
Rp1780
sba(iMap
Tiles
p1781
(dp1782
g3
g4
sg5
I01
sg6
I17
sg7
I17
sg8
g9
(I544
I544
I32
I32
tp1783
Rp1784
sba(iMap
Tiles
p1785
(dp1786
g3
g4
sg5
I01
sg6
I18
sg7
I17
sg8
g9
(I576
I544
I32
I32
tp1787
Rp1788
sba(iMap
Tiles
p1789
(dp1790
g3
g4
sg5
I01
sg6
I19
sg7
I17
sg8
g9
(I608
I544
I32
I32
tp1791
Rp1792
sba(iMap
Tiles
p1793
(dp1794
g3
g4
sg5
I01
sg6
I20
sg7
I17
sg8
g9
(I640
I544
I32
I32
tp1795
Rp1796
sba(iMap
Tiles
p1797
(dp1798
g3
g4
sg5
I01
sg6
I21
sg7
I17
sg8
g9
(I672
I544
I32
I32
tp1799
Rp1800
sba(iMap
Tiles
p1801
(dp1802
g3
g4
sg5
I01
sg6
I22
sg7
I17
sg8
g9
(I704
I544
I32
I32
tp1803
Rp1804
sba(iMap
Tiles
p1805
(dp1806
g3
g4
sg5
I01
sg6
I23
sg7
I17
sg8
g9
(I736
I544
I32
I32
tp1807
Rp1808
sba(iMap
Tiles
p1809
(dp1810
g3
g4
sg5
I01
sg6
I24
sg7
I17
sg8
g9
(I768
I544
I32
I32
tp1811
Rp1812
sba(iMap
Tiles
p1813
(dp1814
g3
g4
sg5
I01
sg6
I0
sg7
I18
sg8
g9
(I0
I576
I32
I32
tp1815
Rp1816
sba(iMap
Tiles
p1817
(dp1818
g3
g4
sg5
I01
sg6
I1
sg7
I18
sg8
g9
(I32
I576
I32
I32
tp1819
Rp1820
sba(iMap
Tiles
p1821
(dp1822
g3
g4
sg5
I01
sg6
I2
sg7
I18
sg8
g9
(I64
I576
I32
I32
tp1823
Rp1824
sba(iMap
Tiles
p1825
(dp1826
g3
g4
sg5
I01
sg6
I3
sg7
I18
sg8
g9
(I96
I576
I32
I32
tp1827
Rp1828
sba(iMap
Tiles
p1829
(dp1830
g3
g4
sg5
I01
sg6
I4
sg7
I18
sg8
g9
(I128
I576
I32
I32
tp1831
Rp1832
sba(iMap
Tiles
p1833
(dp1834
g3
g4
sg5
I01
sg6
I5
sg7
I18
sg8
g9
(I160
I576
I32
I32
tp1835
Rp1836
sba(iMap
Tiles
p1837
(dp1838
g3
g4
sg5
I01
sg6
I6
sg7
I18
sg8
g9
(I192
I576
I32
I32
tp1839
Rp1840
sba(iMap
Tiles
p1841
(dp1842
g3
g4
sg5
I01
sg6
I7
sg7
I18
sg8
g9
(I224
I576
I32
I32
tp1843
Rp1844
sba(iMap
Tiles
p1845
(dp1846
g3
g4
sg5
I01
sg6
I8
sg7
I18
sg8
g9
(I256
I576
I32
I32
tp1847
Rp1848
sba(iMap
Tiles
p1849
(dp1850
g3
g4
sg5
I01
sg6
I9
sg7
I18
sg8
g9
(I288
I576
I32
I32
tp1851
Rp1852
sba(iMap
Tiles
p1853
(dp1854
g3
g4
sg5
I01
sg6
I10
sg7
I18
sg8
g9
(I320
I576
I32
I32
tp1855
Rp1856
sba(iMap
Tiles
p1857
(dp1858
g3
g4
sg5
I01
sg6
I11
sg7
I18
sg8
g9
(I352
I576
I32
I32
tp1859
Rp1860
sba(iMap
Tiles
p1861
(dp1862
g3
g1246
sg5
I00
sg6
I12
sg7
I18
sg8
g9
(I384
I576
I32
I32
tp1863
Rp1864
sba(iMap
Tiles
p1865
(dp1866
g3
g1246
sg5
I00
sg6
I13
sg7
I18
sg8
g9
(I416
I576
I32
I32
tp1867
Rp1868
sba(iMap
Tiles
p1869
(dp1870
g3
g4
sg5
I01
sg6
I14
sg7
I18
sg8
g9
(I448
I576
I32
I32
tp1871
Rp1872
sba(iMap
Tiles
p1873
(dp1874
g3
g4
sg5
I01
sg6
I15
sg7
I18
sg8
g9
(I480
I576
I32
I32
tp1875
Rp1876
sba(iMap
Tiles
p1877
(dp1878
g3
g4
sg5
I01
sg6
I16
sg7
I18
sg8
g9
(I512
I576
I32
I32
tp1879
Rp1880
sba(iMap
Tiles
p1881
(dp1882
g3
g4
sg5
I01
sg6
I17
sg7
I18
sg8
g9
(I544
I576
I32
I32
tp1883
Rp1884
sba(iMap
Tiles
p1885
(dp1886
g3
g4
sg5
I01
sg6
I18
sg7
I18
sg8
g9
(I576
I576
I32
I32
tp1887
Rp1888
sba(iMap
Tiles
p1889
(dp1890
g3
g4
sg5
I01
sg6
I19
sg7
I18
sg8
g9
(I608
I576
I32
I32
tp1891
Rp1892
sba(iMap
Tiles
p1893
(dp1894
g3
g4
sg5
I01
sg6
I20
sg7
I18
sg8
g9
(I640
I576
I32
I32
tp1895
Rp1896
sba(iMap
Tiles
p1897
(dp1898
g3
g4
sg5
I01
sg6
I21
sg7
I18
sg8
g9
(I672
I576
I32
I32
tp1899
Rp1900
sba(iMap
Tiles
p1901
(dp1902
g3
g4
sg5
I01
sg6
I22
sg7
I18
sg8
g9
(I704
I576
I32
I32
tp1903
Rp1904
sba(iMap
Tiles
p1905
(dp1906
g3
g4
sg5
I01
sg6
I23
sg7
I18
sg8
g9
(I736
I576
I32
I32
tp1907
Rp1908
sba(iMap
Tiles
p1909
(dp1910
g3
g4
sg5
I01
sg6
I24
sg7
I18
sg8
g9
(I768
I576
I32
I32
tp1911
Rp1912
sba(iMap
Tiles
p1913
(dp1914
g3
g4
sg5
I01
sg6
I0
sg7
I19
sg8
g9
(I0
I608
I32
I32
tp1915
Rp1916
sba(iMap
Tiles
p1917
(dp1918
g3
g4
sg5
I01
sg6
I1
sg7
I19
sg8
g9
(I32
I608
I32
I32
tp1919
Rp1920
sba(iMap
Tiles
p1921
(dp1922
g3
g4
sg5
I01
sg6
I2
sg7
I19
sg8
g9
(I64
I608
I32
I32
tp1923
Rp1924
sba(iMap
Tiles
p1925
(dp1926
g3
g4
sg5
I01
sg6
I3
sg7
I19
sg8
g9
(I96
I608
I32
I32
tp1927
Rp1928
sba(iMap
Tiles
p1929
(dp1930
g3
g4
sg5
I01
sg6
I4
sg7
I19
sg8
g9
(I128
I608
I32
I32
tp1931
Rp1932
sba(iMap
Tiles
p1933
(dp1934
g3
g4
sg5
I01
sg6
I5
sg7
I19
sg8
g9
(I160
I608
I32
I32
tp1935
Rp1936
sba(iMap
Tiles
p1937
(dp1938
g3
g4
sg5
I01
sg6
I6
sg7
I19
sg8
g9
(I192
I608
I32
I32
tp1939
Rp1940
sba(iMap
Tiles
p1941
(dp1942
g3
g4
sg5
I01
sg6
I7
sg7
I19
sg8
g9
(I224
I608
I32
I32
tp1943
Rp1944
sba(iMap
Tiles
p1945
(dp1946
g3
g4
sg5
I01
sg6
I8
sg7
I19
sg8
g9
(I256
I608
I32
I32
tp1947
Rp1948
sba(iMap
Tiles
p1949
(dp1950
g3
g4
sg5
I01
sg6
I9
sg7
I19
sg8
g9
(I288
I608
I32
I32
tp1951
Rp1952
sba(iMap
Tiles
p1953
(dp1954
g3
g4
sg5
I01
sg6
I10
sg7
I19
sg8
g9
(I320
I608
I32
I32
tp1955
Rp1956
sba(iMap
Tiles
p1957
(dp1958
g3
g4
sg5
I01
sg6
I11
sg7
I19
sg8
g9
(I352
I608
I32
I32
tp1959
Rp1960
sba(iMap
Tiles
p1961
(dp1962
g3
g4
sg5
I01
sg6
I12
sg7
I19
sg8
g9
(I384
I608
I32
I32
tp1963
Rp1964
sba(iMap
Tiles
p1965
(dp1966
g3
g1246
sg5
I00
sg6
I13
sg7
I19
sg8
g9
(I416
I608
I32
I32
tp1967
Rp1968
sba(iMap
Tiles
p1969
(dp1970
g3
g1246
sg5
I00
sg6
I14
sg7
I19
sg8
g9
(I448
I608
I32
I32
tp1971
Rp1972
sba(iMap
Tiles
p1973
(dp1974
g3
g4
sg5
I01
sg6
I15
sg7
I19
sg8
g9
(I480
I608
I32
I32
tp1975
Rp1976
sba(iMap
Tiles
p1977
(dp1978
g3
g4
sg5
I01
sg6
I16
sg7
I19
sg8
g9
(I512
I608
I32
I32
tp1979
Rp1980
sba(iMap
Tiles
p1981
(dp1982
g3
g4
sg5
I01
sg6
I17
sg7
I19
sg8
g9
(I544
I608
I32
I32
tp1983
Rp1984
sba(iMap
Tiles
p1985
(dp1986
g3
g4
sg5
I01
sg6
I18
sg7
I19
sg8
g9
(I576
I608
I32
I32
tp1987
Rp1988
sba(iMap
Tiles
p1989
(dp1990
g3
g4
sg5
I01
sg6
I19
sg7
I19
sg8
g9
(I608
I608
I32
I32
tp1991
Rp1992
sba(iMap
Tiles
p1993
(dp1994
g3
g4
sg5
I01
sg6
I20
sg7
I19
sg8
g9
(I640
I608
I32
I32
tp1995
Rp1996
sba(iMap
Tiles
p1997
(dp1998
g3
g4
sg5
I01
sg6
I21
sg7
I19
sg8
g9
(I672
I608
I32
I32
tp1999
Rp2000
sba(iMap
Tiles
p2001
(dp2002
g3
g4
sg5
I01
sg6
I22
sg7
I19
sg8
g9
(I704
I608
I32
I32
tp2003
Rp2004
sba(iMap
Tiles
p2005
(dp2006
g3
g4
sg5
I01
sg6
I23
sg7
I19
sg8
g9
(I736
I608
I32
I32
tp2007
Rp2008
sba(iMap
Tiles
p2009
(dp2010
g3
g4
sg5
I01
sg6
I24
sg7
I19
sg8
g9
(I768
I608
I32
I32
tp2011
Rp2012
sba(iMap
Tiles
p2013
(dp2014
g3
g4
sg5
I01
sg6
I0
sg7
I20
sg8
g9
(I0
I640
I32
I32
tp2015
Rp2016
sba(iMap
Tiles
p2017
(dp2018
g3
g4
sg5
I01
sg6
I1
sg7
I20
sg8
g9
(I32
I640
I32
I32
tp2019
Rp2020
sba(iMap
Tiles
p2021
(dp2022
g3
g4
sg5
I01
sg6
I2
sg7
I20
sg8
g9
(I64
I640
I32
I32
tp2023
Rp2024
sba(iMap
Tiles
p2025
(dp2026
g3
g4
sg5
I01
sg6
I3
sg7
I20
sg8
g9
(I96
I640
I32
I32
tp2027
Rp2028
sba(iMap
Tiles
p2029
(dp2030
g3
g4
sg5
I01
sg6
I4
sg7
I20
sg8
g9
(I128
I640
I32
I32
tp2031
Rp2032
sba(iMap
Tiles
p2033
(dp2034
g3
g4
sg5
I01
sg6
I5
sg7
I20
sg8
g9
(I160
I640
I32
I32
tp2035
Rp2036
sba(iMap
Tiles
p2037
(dp2038
g3
g4
sg5
I01
sg6
I6
sg7
I20
sg8
g9
(I192
I640
I32
I32
tp2039
Rp2040
sba(iMap
Tiles
p2041
(dp2042
g3
g4
sg5
I01
sg6
I7
sg7
I20
sg8
g9
(I224
I640
I32
I32
tp2043
Rp2044
sba(iMap
Tiles
p2045
(dp2046
g3
g4
sg5
I01
sg6
I8
sg7
I20
sg8
g9
(I256
I640
I32
I32
tp2047
Rp2048
sba(iMap
Tiles
p2049
(dp2050
g3
g4
sg5
I01
sg6
I9
sg7
I20
sg8
g9
(I288
I640
I32
I32
tp2051
Rp2052
sba(iMap
Tiles
p2053
(dp2054
g3
g4
sg5
I01
sg6
I10
sg7
I20
sg8
g9
(I320
I640
I32
I32
tp2055
Rp2056
sba(iMap
Tiles
p2057
(dp2058
g3
g4
sg5
I01
sg6
I11
sg7
I20
sg8
g9
(I352
I640
I32
I32
tp2059
Rp2060
sba(iMap
Tiles
p2061
(dp2062
g3
g4
sg5
I01
sg6
I12
sg7
I20
sg8
g9
(I384
I640
I32
I32
tp2063
Rp2064
sba(iMap
Tiles
p2065
(dp2066
g3
g4
sg5
I01
sg6
I13
sg7
I20
sg8
g9
(I416
I640
I32
I32
tp2067
Rp2068
sba(iMap
Tiles
p2069
(dp2070
g3
g4
sg5
I01
sg6
I14
sg7
I20
sg8
g9
(I448
I640
I32
I32
tp2071
Rp2072
sba(iMap
Tiles
p2073
(dp2074
g3
g4
sg5
I01
sg6
I15
sg7
I20
sg8
g9
(I480
I640
I32
I32
tp2075
Rp2076
sba(iMap
Tiles
p2077
(dp2078
g3
g4
sg5
I01
sg6
I16
sg7
I20
sg8
g9
(I512
I640
I32
I32
tp2079
Rp2080
sba(iMap
Tiles
p2081
(dp2082
g3
g4
sg5
I01
sg6
I17
sg7
I20
sg8
g9
(I544
I640
I32
I32
tp2083
Rp2084
sba(iMap
Tiles
p2085
(dp2086
g3
g4
sg5
I01
sg6
I18
sg7
I20
sg8
g9
(I576
I640
I32
I32
tp2087
Rp2088
sba(iMap
Tiles
p2089
(dp2090
g3
g4
sg5
I01
sg6
I19
sg7
I20
sg8
g9
(I608
I640
I32
I32
tp2091
Rp2092
sba(iMap
Tiles
p2093
(dp2094
g3
g4
sg5
I01
sg6
I20
sg7
I20
sg8
g9
(I640
I640
I32
I32
tp2095
Rp2096
sba(iMap
Tiles
p2097
(dp2098
g3
g4
sg5
I01
sg6
I21
sg7
I20
sg8
g9
(I672
I640
I32
I32
tp2099
Rp2100
sba(iMap
Tiles
p2101
(dp2102
g3
g4
sg5
I01
sg6
I22
sg7
I20
sg8
g9
(I704
I640
I32
I32
tp2103
Rp2104
sba(iMap
Tiles
p2105
(dp2106
g3
g4
sg5
I01
sg6
I23
sg7
I20
sg8
g9
(I736
I640
I32
I32
tp2107
Rp2108
sba(iMap
Tiles
p2109
(dp2110
g3
g4
sg5
I01
sg6
I24
sg7
I20
sg8
g9
(I768
I640
I32
I32
tp2111
Rp2112
sba(iMap
Tiles
p2113
(dp2114
g3
g4
sg5
I01
sg6
I0
sg7
I21
sg8
g9
(I0
I672
I32
I32
tp2115
Rp2116
sba(iMap
Tiles
p2117
(dp2118
g3
g4
sg5
I01
sg6
I1
sg7
I21
sg8
g9
(I32
I672
I32
I32
tp2119
Rp2120
sba(iMap
Tiles
p2121
(dp2122
g3
g4
sg5
I01
sg6
I2
sg7
I21
sg8
g9
(I64
I672
I32
I32
tp2123
Rp2124
sba(iMap
Tiles
p2125
(dp2126
g3
g4
sg5
I01
sg6
I3
sg7
I21
sg8
g9
(I96
I672
I32
I32
tp2127
Rp2128
sba(iMap
Tiles
p2129
(dp2130
g3
g4
sg5
I01
sg6
I4
sg7
I21
sg8
g9
(I128
I672
I32
I32
tp2131
Rp2132
sba(iMap
Tiles
p2133
(dp2134
g3
g4
sg5
I01
sg6
I5
sg7
I21
sg8
g9
(I160
I672
I32
I32
tp2135
Rp2136
sba(iMap
Tiles
p2137
(dp2138
g3
g4
sg5
I01
sg6
I6
sg7
I21
sg8
g9
(I192
I672
I32
I32
tp2139
Rp2140
sba(iMap
Tiles
p2141
(dp2142
g3
g4
sg5
I01
sg6
I7
sg7
I21
sg8
g9
(I224
I672
I32
I32
tp2143
Rp2144
sba(iMap
Tiles
p2145
(dp2146
g3
g4
sg5
I01
sg6
I8
sg7
I21
sg8
g9
(I256
I672
I32
I32
tp2147
Rp2148
sba(iMap
Tiles
p2149
(dp2150
g3
g4
sg5
I01
sg6
I9
sg7
I21
sg8
g9
(I288
I672
I32
I32
tp2151
Rp2152
sba(iMap
Tiles
p2153
(dp2154
g3
g4
sg5
I01
sg6
I10
sg7
I21
sg8
g9
(I320
I672
I32
I32
tp2155
Rp2156
sba(iMap
Tiles
p2157
(dp2158
g3
g4
sg5
I01
sg6
I11
sg7
I21
sg8
g9
(I352
I672
I32
I32
tp2159
Rp2160
sba(iMap
Tiles
p2161
(dp2162
g3
g4
sg5
I01
sg6
I12
sg7
I21
sg8
g9
(I384
I672
I32
I32
tp2163
Rp2164
sba(iMap
Tiles
p2165
(dp2166
g3
g4
sg5
I01
sg6
I13
sg7
I21
sg8
g9
(I416
I672
I32
I32
tp2167
Rp2168
sba(iMap
Tiles
p2169
(dp2170
g3
g4
sg5
I01
sg6
I14
sg7
I21
sg8
g9
(I448
I672
I32
I32
tp2171
Rp2172
sba(iMap
Tiles
p2173
(dp2174
g3
g4
sg5
I01
sg6
I15
sg7
I21
sg8
g9
(I480
I672
I32
I32
tp2175
Rp2176
sba(iMap
Tiles
p2177
(dp2178
g3
g4
sg5
I01
sg6
I16
sg7
I21
sg8
g9
(I512
I672
I32
I32
tp2179
Rp2180
sba(iMap
Tiles
p2181
(dp2182
g3
g4
sg5
I01
sg6
I17
sg7
I21
sg8
g9
(I544
I672
I32
I32
tp2183
Rp2184
sba(iMap
Tiles
p2185
(dp2186
g3
g4
sg5
I01
sg6
I18
sg7
I21
sg8
g9
(I576
I672
I32
I32
tp2187
Rp2188
sba(iMap
Tiles
p2189
(dp2190
g3
g4
sg5
I01
sg6
I19
sg7
I21
sg8
g9
(I608
I672
I32
I32
tp2191
Rp2192
sba(iMap
Tiles
p2193
(dp2194
g3
g4
sg5
I01
sg6
I20
sg7
I21
sg8
g9
(I640
I672
I32
I32
tp2195
Rp2196
sba(iMap
Tiles
p2197
(dp2198
g3
g4
sg5
I01
sg6
I21
sg7
I21
sg8
g9
(I672
I672
I32
I32
tp2199
Rp2200
sba(iMap
Tiles
p2201
(dp2202
g3
g4
sg5
I01
sg6
I22
sg7
I21
sg8
g9
(I704
I672
I32
I32
tp2203
Rp2204
sba(iMap
Tiles
p2205
(dp2206
g3
g4
sg5
I01
sg6
I23
sg7
I21
sg8
g9
(I736
I672
I32
I32
tp2207
Rp2208
sba(iMap
Tiles
p2209
(dp2210
g3
g4
sg5
I01
sg6
I24
sg7
I21
sg8
g9
(I768
I672
I32
I32
tp2211
Rp2212
sba(iMap
Tiles
p2213
(dp2214
g3
g4
sg5
I01
sg6
I0
sg7
I22
sg8
g9
(I0
I704
I32
I32
tp2215
Rp2216
sba(iMap
Tiles
p2217
(dp2218
g3
g4
sg5
I01
sg6
I1
sg7
I22
sg8
g9
(I32
I704
I32
I32
tp2219
Rp2220
sba(iMap
Tiles
p2221
(dp2222
g3
g4
sg5
I01
sg6
I2
sg7
I22
sg8
g9
(I64
I704
I32
I32
tp2223
Rp2224
sba(iMap
Tiles
p2225
(dp2226
g3
g4
sg5
I01
sg6
I3
sg7
I22
sg8
g9
(I96
I704
I32
I32
tp2227
Rp2228
sba(iMap
Tiles
p2229
(dp2230
g3
g4
sg5
I01
sg6
I4
sg7
I22
sg8
g9
(I128
I704
I32
I32
tp2231
Rp2232
sba(iMap
Tiles
p2233
(dp2234
g3
g4
sg5
I01
sg6
I5
sg7
I22
sg8
g9
(I160
I704
I32
I32
tp2235
Rp2236
sba(iMap
Tiles
p2237
(dp2238
g3
g4
sg5
I01
sg6
I6
sg7
I22
sg8
g9
(I192
I704
I32
I32
tp2239
Rp2240
sba(iMap
Tiles
p2241
(dp2242
g3
g4
sg5
I01
sg6
I7
sg7
I22
sg8
g9
(I224
I704
I32
I32
tp2243
Rp2244
sba(iMap
Tiles
p2245
(dp2246
g3
g4
sg5
I01
sg6
I8
sg7
I22
sg8
g9
(I256
I704
I32
I32
tp2247
Rp2248
sba(iMap
Tiles
p2249
(dp2250
g3
g4
sg5
I01
sg6
I9
sg7
I22
sg8
g9
(I288
I704
I32
I32
tp2251
Rp2252
sba(iMap
Tiles
p2253
(dp2254
g3
g4
sg5
I01
sg6
I10
sg7
I22
sg8
g9
(I320
I704
I32
I32
tp2255
Rp2256
sba(iMap
Tiles
p2257
(dp2258
g3
g4
sg5
I01
sg6
I11
sg7
I22
sg8
g9
(I352
I704
I32
I32
tp2259
Rp2260
sba(iMap
Tiles
p2261
(dp2262
g3
g4
sg5
I01
sg6
I12
sg7
I22
sg8
g9
(I384
I704
I32
I32
tp2263
Rp2264
sba(iMap
Tiles
p2265
(dp2266
g3
g4
sg5
I01
sg6
I13
sg7
I22
sg8
g9
(I416
I704
I32
I32
tp2267
Rp2268
sba(iMap
Tiles
p2269
(dp2270
g3
g4
sg5
I01
sg6
I14
sg7
I22
sg8
g9
(I448
I704
I32
I32
tp2271
Rp2272
sba(iMap
Tiles
p2273
(dp2274
g3
g4
sg5
I01
sg6
I15
sg7
I22
sg8
g9
(I480
I704
I32
I32
tp2275
Rp2276
sba(iMap
Tiles
p2277
(dp2278
g3
g4
sg5
I01
sg6
I16
sg7
I22
sg8
g9
(I512
I704
I32
I32
tp2279
Rp2280
sba(iMap
Tiles
p2281
(dp2282
g3
g4
sg5
I01
sg6
I17
sg7
I22
sg8
g9
(I544
I704
I32
I32
tp2283
Rp2284
sba(iMap
Tiles
p2285
(dp2286
g3
g4
sg5
I01
sg6
I18
sg7
I22
sg8
g9
(I576
I704
I32
I32
tp2287
Rp2288
sba(iMap
Tiles
p2289
(dp2290
g3
g4
sg5
I01
sg6
I19
sg7
I22
sg8
g9
(I608
I704
I32
I32
tp2291
Rp2292
sba(iMap
Tiles
p2293
(dp2294
g3
g4
sg5
I01
sg6
I20
sg7
I22
sg8
g9
(I640
I704
I32
I32
tp2295
Rp2296
sba(iMap
Tiles
p2297
(dp2298
g3
g4
sg5
I01
sg6
I21
sg7
I22
sg8
g9
(I672
I704
I32
I32
tp2299
Rp2300
sba(iMap
Tiles
p2301
(dp2302
g3
g4
sg5
I01
sg6
I22
sg7
I22
sg8
g9
(I704
I704
I32
I32
tp2303
Rp2304
sba(iMap
Tiles
p2305
(dp2306
g3
g4
sg5
I01
sg6
I23
sg7
I22
sg8
g9
(I736
I704
I32
I32
tp2307
Rp2308
sba(iMap
Tiles
p2309
(dp2310
g3
g4
sg5
I01
sg6
I24
sg7
I22
sg8
g9
(I768
I704
I32
I32
tp2311
Rp2312
sba(iMap
Tiles
p2313
(dp2314
g3
g4
sg5
I01
sg6
I0
sg7
I23
sg8
g9
(I0
I736
I32
I32
tp2315
Rp2316
sba(iMap
Tiles
p2317
(dp2318
g3
g4
sg5
I01
sg6
I1
sg7
I23
sg8
g9
(I32
I736
I32
I32
tp2319
Rp2320
sba(iMap
Tiles
p2321
(dp2322
g3
g4
sg5
I01
sg6
I2
sg7
I23
sg8
g9
(I64
I736
I32
I32
tp2323
Rp2324
sba(iMap
Tiles
p2325
(dp2326
g3
g4
sg5
I01
sg6
I3
sg7
I23
sg8
g9
(I96
I736
I32
I32
tp2327
Rp2328
sba(iMap
Tiles
p2329
(dp2330
g3
g4
sg5
I01
sg6
I4
sg7
I23
sg8
g9
(I128
I736
I32
I32
tp2331
Rp2332
sba(iMap
Tiles
p2333
(dp2334
g3
g4
sg5
I01
sg6
I5
sg7
I23
sg8
g9
(I160
I736
I32
I32
tp2335
Rp2336
sba(iMap
Tiles
p2337
(dp2338
g3
g4
sg5
I01
sg6
I6
sg7
I23
sg8
g9
(I192
I736
I32
I32
tp2339
Rp2340
sba(iMap
Tiles
p2341
(dp2342
g3
g4
sg5
I01
sg6
I7
sg7
I23
sg8
g9
(I224
I736
I32
I32
tp2343
Rp2344
sba(iMap
Tiles
p2345
(dp2346
g3
g4
sg5
I01
sg6
I8
sg7
I23
sg8
g9
(I256
I736
I32
I32
tp2347
Rp2348
sba(iMap
Tiles
p2349
(dp2350
g3
g4
sg5
I01
sg6
I9
sg7
I23
sg8
g9
(I288
I736
I32
I32
tp2351
Rp2352
sba(iMap
Tiles
p2353
(dp2354
g3
g4
sg5
I01
sg6
I10
sg7
I23
sg8
g9
(I320
I736
I32
I32
tp2355
Rp2356
sba(iMap
Tiles
p2357
(dp2358
g3
g4
sg5
I01
sg6
I11
sg7
I23
sg8
g9
(I352
I736
I32
I32
tp2359
Rp2360
sba(iMap
Tiles
p2361
(dp2362
g3
g4
sg5
I01
sg6
I12
sg7
I23
sg8
g9
(I384
I736
I32
I32
tp2363
Rp2364
sba(iMap
Tiles
p2365
(dp2366
g3
g4
sg5
I01
sg6
I13
sg7
I23
sg8
g9
(I416
I736
I32
I32
tp2367
Rp2368
sba(iMap
Tiles
p2369
(dp2370
g3
g4
sg5
I01
sg6
I14
sg7
I23
sg8
g9
(I448
I736
I32
I32
tp2371
Rp2372
sba(iMap
Tiles
p2373
(dp2374
g3
g4
sg5
I01
sg6
I15
sg7
I23
sg8
g9
(I480
I736
I32
I32
tp2375
Rp2376
sba(iMap
Tiles
p2377
(dp2378
g3
g4
sg5
I01
sg6
I16
sg7
I23
sg8
g9
(I512
I736
I32
I32
tp2379
Rp2380
sba(iMap
Tiles
p2381
(dp2382
g3
g4
sg5
I01
sg6
I17
sg7
I23
sg8
g9
(I544
I736
I32
I32
tp2383
Rp2384
sba(iMap
Tiles
p2385
(dp2386
g3
g4
sg5
I01
sg6
I18
sg7
I23
sg8
g9
(I576
I736
I32
I32
tp2387
Rp2388
sba(iMap
Tiles
p2389
(dp2390
g3
g4
sg5
I01
sg6
I19
sg7
I23
sg8
g9
(I608
I736
I32
I32
tp2391
Rp2392
sba(iMap
Tiles
p2393
(dp2394
g3
g4
sg5
I01
sg6
I20
sg7
I23
sg8
g9
(I640
I736
I32
I32
tp2395
Rp2396
sba(iMap
Tiles
p2397
(dp2398
g3
g4
sg5
I01
sg6
I21
sg7
I23
sg8
g9
(I672
I736
I32
I32
tp2399
Rp2400
sba(iMap
Tiles
p2401
(dp2402
g3
g4
sg5
I01
sg6
I22
sg7
I23
sg8
g9
(I704
I736
I32
I32
tp2403
Rp2404
sba(iMap
Tiles
p2405
(dp2406
g3
g4
sg5
I01
sg6
I23
sg7
I23
sg8
g9
(I736
I736
I32
I32
tp2407
Rp2408
sba(iMap
Tiles
p2409
(dp2410
g3
g4
sg5
I01
sg6
I24
sg7
I23
sg8
g9
(I768
I736
I32
I32
tp2411
Rp2412
sba(iMap
Tiles
p2413
(dp2414
g3
g4
sg5
I01
sg6
I0
sg7
I24
sg8
g9
(I0
I768
I32
I32
tp2415
Rp2416
sba(iMap
Tiles
p2417
(dp2418
g3
g4
sg5
I01
sg6
I1
sg7
I24
sg8
g9
(I32
I768
I32
I32
tp2419
Rp2420
sba(iMap
Tiles
p2421
(dp2422
g3
g4
sg5
I01
sg6
I2
sg7
I24
sg8
g9
(I64
I768
I32
I32
tp2423
Rp2424
sba(iMap
Tiles
p2425
(dp2426
g3
g4
sg5
I01
sg6
I3
sg7
I24
sg8
g9
(I96
I768
I32
I32
tp2427
Rp2428
sba(iMap
Tiles
p2429
(dp2430
g3
g4
sg5
I01
sg6
I4
sg7
I24
sg8
g9
(I128
I768
I32
I32
tp2431
Rp2432
sba(iMap
Tiles
p2433
(dp2434
g3
g4
sg5
I01
sg6
I5
sg7
I24
sg8
g9
(I160
I768
I32
I32
tp2435
Rp2436
sba(iMap
Tiles
p2437
(dp2438
g3
g4
sg5
I01
sg6
I6
sg7
I24
sg8
g9
(I192
I768
I32
I32
tp2439
Rp2440
sba(iMap
Tiles
p2441
(dp2442
g3
g4
sg5
I01
sg6
I7
sg7
I24
sg8
g9
(I224
I768
I32
I32
tp2443
Rp2444
sba(iMap
Tiles
p2445
(dp2446
g3
g4
sg5
I01
sg6
I8
sg7
I24
sg8
g9
(I256
I768
I32
I32
tp2447
Rp2448
sba(iMap
Tiles
p2449
(dp2450
g3
g4
sg5
I01
sg6
I9
sg7
I24
sg8
g9
(I288
I768
I32
I32
tp2451
Rp2452
sba(iMap
Tiles
p2453
(dp2454
g3
g4
sg5
I01
sg6
I10
sg7
I24
sg8
g9
(I320
I768
I32
I32
tp2455
Rp2456
sba(iMap
Tiles
p2457
(dp2458
g3
g4
sg5
I01
sg6
I11
sg7
I24
sg8
g9
(I352
I768
I32
I32
tp2459
Rp2460
sba(iMap
Tiles
p2461
(dp2462
g3
g4
sg5
I01
sg6
I12
sg7
I24
sg8
g9
(I384
I768
I32
I32
tp2463
Rp2464
sba(iMap
Tiles
p2465
(dp2466
g3
g4
sg5
I01
sg6
I13
sg7
I24
sg8
g9
(I416
I768
I32
I32
tp2467
Rp2468
sba(iMap
Tiles
p2469
(dp2470
g3
g4
sg5
I01
sg6
I14
sg7
I24
sg8
g9
(I448
I768
I32
I32
tp2471
Rp2472
sba(iMap
Tiles
p2473
(dp2474
g3
g4
sg5
I01
sg6
I15
sg7
I24
sg8
g9
(I480
I768
I32
I32
tp2475
Rp2476
sba(iMap
Tiles
p2477
(dp2478
g3
g4
sg5
I01
sg6
I16
sg7
I24
sg8
g9
(I512
I768
I32
I32
tp2479
Rp2480
sba(iMap
Tiles
p2481
(dp2482
g3
g4
sg5
I01
sg6
I17
sg7
I24
sg8
g9
(I544
I768
I32
I32
tp2483
Rp2484
sba(iMap
Tiles
p2485
(dp2486
g3
g4
sg5
I01
sg6
I18
sg7
I24
sg8
g9
(I576
I768
I32
I32
tp2487
Rp2488
sba(iMap
Tiles
p2489
(dp2490
g3
g4
sg5
I01
sg6
I19
sg7
I24
sg8
g9
(I608
I768
I32
I32
tp2491
Rp2492
sba(iMap
Tiles
p2493
(dp2494
g3
g4
sg5
I01
sg6
I20
sg7
I24
sg8
g9
(I640
I768
I32
I32
tp2495
Rp2496
sba(iMap
Tiles
p2497
(dp2498
g3
g4
sg5
I01
sg6
I21
sg7
I24
sg8
g9
(I672
I768
I32
I32
tp2499
Rp2500
sba(iMap
Tiles
p2501
(dp2502
g3
g4
sg5
I01
sg6
I22
sg7
I24
sg8
g9
(I704
I768
I32
I32
tp2503
Rp2504
sba(iMap
Tiles
p2505
(dp2506
g3
g4
sg5
I01
sg6
I23
sg7
I24
sg8
g9
(I736
I768
I32
I32
tp2507
Rp2508
sba(iMap
Tiles
p2509
(dp2510
g3
g4
sg5
I01
sg6
I24
sg7
I24
sg8
g9
(I768
I768
I32
I32
tp2511
Rp2512
sba.