(lp0
(iMap
Tiles
p1
(dp2
S'color'
p3
(I255
I255
I255
tp4
sS'is_wall'
p5
I01
sS'Xpos'
p6
I0
sS'Ypos'
p7
I0
sS'rect'
p8
cpygame
__rect_constructor
p9
(I0
I0
I32
I32
tp10
Rp11
sba(iMap
Tiles
p12
(dp13
g3
g4
sg5
I01
sg6
I1
sg7
I0
sg8
g9
(I32
I0
I32
I32
tp14
Rp15
sba(iMap
Tiles
p16
(dp17
g3
g4
sg5
I01
sg6
I2
sg7
I0
sg8
g9
(I64
I0
I32
I32
tp18
Rp19
sba(iMap
Tiles
p20
(dp21
g3
g4
sg5
I01
sg6
I3
sg7
I0
sg8
g9
(I96
I0
I32
I32
tp22
Rp23
sba(iMap
Tiles
p24
(dp25
g3
(I255
I255
I255
tp26
sg5
I01
sg6
I4
sg7
I0
sg8
g9
(I128
I0
I32
I32
tp27
Rp28
sba(iMap
Tiles
p29
(dp30
g3
g26
sg5
I01
sg6
I5
sg7
I0
sg8
g9
(I160
I0
I32
I32
tp31
Rp32
sba(iMap
Tiles
p33
(dp34
g3
g4
sg5
I01
sg6
I6
sg7
I0
sg8
g9
(I192
I0
I32
I32
tp35
Rp36
sba(iMap
Tiles
p37
(dp38
g3
g4
sg5
I01
sg6
I7
sg7
I0
sg8
g9
(I224
I0
I32
I32
tp39
Rp40
sba(iMap
Tiles
p41
(dp42
g3
g4
sg5
I01
sg6
I8
sg7
I0
sg8
g9
(I256
I0
I32
I32
tp43
Rp44
sba(iMap
Tiles
p45
(dp46
g3
g4
sg5
I01
sg6
I9
sg7
I0
sg8
g9
(I288
I0
I32
I32
tp47
Rp48
sba(iMap
Tiles
p49
(dp50
g3
g4
sg5
I01
sg6
I10
sg7
I0
sg8
g9
(I320
I0
I32
I32
tp51
Rp52
sba(iMap
Tiles
p53
(dp54
g3
g4
sg5
I01
sg6
I11
sg7
I0
sg8
g9
(I352
I0
I32
I32
tp55
Rp56
sba(iMap
Tiles
p57
(dp58
g3
g4
sg5
I01
sg6
I12
sg7
I0
sg8
g9
(I384
I0
I32
I32
tp59
Rp60
sba(iMap
Tiles
p61
(dp62
g3
g4
sg5
I01
sg6
I13
sg7
I0
sg8
g9
(I416
I0
I32
I32
tp63
Rp64
sba(iMap
Tiles
p65
(dp66
g3
g4
sg5
I01
sg6
I14
sg7
I0
sg8
g9
(I448
I0
I32
I32
tp67
Rp68
sba(iMap
Tiles
p69
(dp70
g3
g4
sg5
I01
sg6
I15
sg7
I0
sg8
g9
(I480
I0
I32
I32
tp71
Rp72
sba(iMap
Tiles
p73
(dp74
g3
g4
sg5
I01
sg6
I16
sg7
I0
sg8
g9
(I512
I0
I32
I32
tp75
Rp76
sba(iMap
Tiles
p77
(dp78
g3
g4
sg5
I01
sg6
I17
sg7
I0
sg8
g9
(I544
I0
I32
I32
tp79
Rp80
sba(iMap
Tiles
p81
(dp82
g3
g4
sg5
I01
sg6
I18
sg7
I0
sg8
g9
(I576
I0
I32
I32
tp83
Rp84
sba(iMap
Tiles
p85
(dp86
g3
g4
sg5
I01
sg6
I19
sg7
I0
sg8
g9
(I608
I0
I32
I32
tp87
Rp88
sba(iMap
Tiles
p89
(dp90
g3
g4
sg5
I01
sg6
I20
sg7
I0
sg8
g9
(I640
I0
I32
I32
tp91
Rp92
sba(iMap
Tiles
p93
(dp94
g3
g4
sg5
I01
sg6
I21
sg7
I0
sg8
g9
(I672
I0
I32
I32
tp95
Rp96
sba(iMap
Tiles
p97
(dp98
g3
g4
sg5
I01
sg6
I22
sg7
I0
sg8
g9
(I704
I0
I32
I32
tp99
Rp100
sba(iMap
Tiles
p101
(dp102
g3
g4
sg5
I01
sg6
I23
sg7
I0
sg8
g9
(I736
I0
I32
I32
tp103
Rp104
sba(iMap
Tiles
p105
(dp106
g3
g4
sg5
I01
sg6
I24
sg7
I0
sg8
g9
(I768
I0
I32
I32
tp107
Rp108
sba(iMap
Tiles
p109
(dp110
g3
g4
sg5
I01
sg6
I0
sg7
I1
sg8
g9
(I0
I32
I32
I32
tp111
Rp112
sba(iMap
Tiles
p113
(dp114
g3
g26
sg5
I01
sg6
I1
sg7
I1
sg8
g9
(I32
I32
I32
I32
tp115
Rp116
sba(iMap
Tiles
p117
(dp118
g3
(I0
I0
I0
tp119
sg5
I00
sg6
I2
sg7
I1
sg8
g9
(I64
I32
I32
I32
tp120
Rp121
sba(iMap
Tiles
p122
(dp123
g3
g119
sg5
I00
sg6
I3
sg7
I1
sg8
g9
(I96
I32
I32
I32
tp124
Rp125
sba(iMap
Tiles
p126
(dp127
g3
g119
sg5
I00
sg6
I4
sg7
I1
sg8
g9
(I128
I32
I32
I32
tp128
Rp129
sba(iMap
Tiles
p130
(dp131
g3
(I0
I0
I0
tp132
sg5
I00
sg6
I5
sg7
I1
sg8
g9
(I160
I32
I32
I32
tp133
Rp134
sba(iMap
Tiles
p135
(dp136
g3
g132
sg5
I00
sg6
I6
sg7
I1
sg8
g9
(I192
I32
I32
I32
tp137
Rp138
sba(iMap
Tiles
p139
(dp140
g3
g132
sg5
I00
sg6
I7
sg7
I1
sg8
g9
(I224
I32
I32
I32
tp141
Rp142
sba(iMap
Tiles
p143
(dp144
g3
g4
sg5
I01
sg6
I8
sg7
I1
sg8
g9
(I256
I32
I32
I32
tp145
Rp146
sba(iMap
Tiles
p147
(dp148
g3
g4
sg5
I01
sg6
I9
sg7
I1
sg8
g9
(I288
I32
I32
I32
tp149
Rp150
sba(iMap
Tiles
p151
(dp152
g3
g4
sg5
I01
sg6
I10
sg7
I1
sg8
g9
(I320
I32
I32
I32
tp153
Rp154
sba(iMap
Tiles
p155
(dp156
g3
g4
sg5
I01
sg6
I11
sg7
I1
sg8
g9
(I352
I32
I32
I32
tp157
Rp158
sba(iMap
Tiles
p159
(dp160
g3
g4
sg5
I01
sg6
I12
sg7
I1
sg8
g9
(I384
I32
I32
I32
tp161
Rp162
sba(iMap
Tiles
p163
(dp164
g3
g4
sg5
I01
sg6
I13
sg7
I1
sg8
g9
(I416
I32
I32
I32
tp165
Rp166
sba(iMap
Tiles
p167
(dp168
g3
g4
sg5
I01
sg6
I14
sg7
I1
sg8
g9
(I448
I32
I32
I32
tp169
Rp170
sba(iMap
Tiles
p171
(dp172
g3
g4
sg5
I01
sg6
I15
sg7
I1
sg8
g9
(I480
I32
I32
I32
tp173
Rp174
sba(iMap
Tiles
p175
(dp176
g3
g4
sg5
I01
sg6
I16
sg7
I1
sg8
g9
(I512
I32
I32
I32
tp177
Rp178
sba(iMap
Tiles
p179
(dp180
g3
g4
sg5
I01
sg6
I17
sg7
I1
sg8
g9
(I544
I32
I32
I32
tp181
Rp182
sba(iMap
Tiles
p183
(dp184
g3
g4
sg5
I01
sg6
I18
sg7
I1
sg8
g9
(I576
I32
I32
I32
tp185
Rp186
sba(iMap
Tiles
p187
(dp188
g3
g4
sg5
I01
sg6
I19
sg7
I1
sg8
g9
(I608
I32
I32
I32
tp189
Rp190
sba(iMap
Tiles
p191
(dp192
g3
g4
sg5
I01
sg6
I20
sg7
I1
sg8
g9
(I640
I32
I32
I32
tp193
Rp194
sba(iMap
Tiles
p195
(dp196
g3
g4
sg5
I01
sg6
I21
sg7
I1
sg8
g9
(I672
I32
I32
I32
tp197
Rp198
sba(iMap
Tiles
p199
(dp200
g3
g4
sg5
I01
sg6
I22
sg7
I1
sg8
g9
(I704
I32
I32
I32
tp201
Rp202
sba(iMap
Tiles
p203
(dp204
g3
g4
sg5
I01
sg6
I23
sg7
I1
sg8
g9
(I736
I32
I32
I32
tp205
Rp206
sba(iMap
Tiles
p207
(dp208
g3
g4
sg5
I01
sg6
I24
sg7
I1
sg8
g9
(I768
I32
I32
I32
tp209
Rp210
sba(iMap
Tiles
p211
(dp212
g3
(I255
I255
I255
tp213
sg5
I01
sg6
I0
sg7
I2
sg8
g9
(I0
I64
I32
I32
tp214
Rp215
sba(iMap
Tiles
p216
(dp217
g3
g132
sg5
I00
sg6
I1
sg7
I2
sg8
g9
(I32
I64
I32
I32
tp218
Rp219
sba(iMap
Tiles
p220
(dp221
g3
g119
sg5
I00
sg6
I2
sg7
I2
sg8
g9
(I64
I64
I32
I32
tp222
Rp223
sba(iMap
Tiles
p224
(dp225
g3
g119
sg5
I00
sg6
I3
sg7
I2
sg8
g9
(I96
I64
I32
I32
tp226
Rp227
sba(iMap
Tiles
p228
(dp229
g3
g132
sg5
I00
sg6
I4
sg7
I2
sg8
g9
(I128
I64
I32
I32
tp230
Rp231
sba(iMap
Tiles
p232
(dp233
g3
g132
sg5
I00
sg6
I5
sg7
I2
sg8
g9
(I160
I64
I32
I32
tp234
Rp235
sba(iMap
Tiles
p236
(dp237
g3
g132
sg5
I00
sg6
I6
sg7
I2
sg8
g9
(I192
I64
I32
I32
tp238
Rp239
sba(iMap
Tiles
p240
(dp241
g3
g132
sg5
I00
sg6
I7
sg7
I2
sg8
g9
(I224
I64
I32
I32
tp242
Rp243
sba(iMap
Tiles
p244
(dp245
g3
g4
sg5
I01
sg6
I8
sg7
I2
sg8
g9
(I256
I64
I32
I32
tp246
Rp247
sba(iMap
Tiles
p248
(dp249
g3
g4
sg5
I01
sg6
I9
sg7
I2
sg8
g9
(I288
I64
I32
I32
tp250
Rp251
sba(iMap
Tiles
p252
(dp253
g3
g4
sg5
I01
sg6
I10
sg7
I2
sg8
g9
(I320
I64
I32
I32
tp254
Rp255
sba(iMap
Tiles
p256
(dp257
g3
g4
sg5
I01
sg6
I11
sg7
I2
sg8
g9
(I352
I64
I32
I32
tp258
Rp259
sba(iMap
Tiles
p260
(dp261
g3
g4
sg5
I01
sg6
I12
sg7
I2
sg8
g9
(I384
I64
I32
I32
tp262
Rp263
sba(iMap
Tiles
p264
(dp265
g3
g4
sg5
I01
sg6
I13
sg7
I2
sg8
g9
(I416
I64
I32
I32
tp266
Rp267
sba(iMap
Tiles
p268
(dp269
g3
g4
sg5
I01
sg6
I14
sg7
I2
sg8
g9
(I448
I64
I32
I32
tp270
Rp271
sba(iMap
Tiles
p272
(dp273
g3
g4
sg5
I01
sg6
I15
sg7
I2
sg8
g9
(I480
I64
I32
I32
tp274
Rp275
sba(iMap
Tiles
p276
(dp277
g3
g4
sg5
I01
sg6
I16
sg7
I2
sg8
g9
(I512
I64
I32
I32
tp278
Rp279
sba(iMap
Tiles
p280
(dp281
g3
g4
sg5
I01
sg6
I17
sg7
I2
sg8
g9
(I544
I64
I32
I32
tp282
Rp283
sba(iMap
Tiles
p284
(dp285
g3
g4
sg5
I01
sg6
I18
sg7
I2
sg8
g9
(I576
I64
I32
I32
tp286
Rp287
sba(iMap
Tiles
p288
(dp289
g3
g4
sg5
I01
sg6
I19
sg7
I2
sg8
g9
(I608
I64
I32
I32
tp290
Rp291
sba(iMap
Tiles
p292
(dp293
g3
g4
sg5
I01
sg6
I20
sg7
I2
sg8
g9
(I640
I64
I32
I32
tp294
Rp295
sba(iMap
Tiles
p296
(dp297
g3
g4
sg5
I01
sg6
I21
sg7
I2
sg8
g9
(I672
I64
I32
I32
tp298
Rp299
sba(iMap
Tiles
p300
(dp301
g3
g4
sg5
I01
sg6
I22
sg7
I2
sg8
g9
(I704
I64
I32
I32
tp302
Rp303
sba(iMap
Tiles
p304
(dp305
g3
g4
sg5
I01
sg6
I23
sg7
I2
sg8
g9
(I736
I64
I32
I32
tp306
Rp307
sba(iMap
Tiles
p308
(dp309
g3
g4
sg5
I01
sg6
I24
sg7
I2
sg8
g9
(I768
I64
I32
I32
tp310
Rp311
sba(iMap
Tiles
p312
(dp313
g3
g4
sg5
I01
sg6
I0
sg7
I3
sg8
g9
(I0
I96
I32
I32
tp314
Rp315
sba(iMap
Tiles
p316
(dp317
g3
g132
sg5
I00
sg6
I1
sg7
I3
sg8
g9
(I32
I96
I32
I32
tp318
Rp319
sba(iMap
Tiles
p320
(dp321
g3
g119
sg5
I00
sg6
I2
sg7
I3
sg8
g9
(I64
I96
I32
I32
tp322
Rp323
sba(iMap
Tiles
p324
(dp325
g3
(I0
I0
I0
tp326
sg5
I00
sg6
I3
sg7
I3
sg8
g9
(I96
I96
I32
I32
tp327
Rp328
sba(iMap
Tiles
p329
(dp330
g3
(I255
I255
I255
tp331
sg5
I01
sg6
I4
sg7
I3
sg8
g9
(I128
I96
I32
I32
tp332
Rp333
sba(iMap
Tiles
p334
(dp335
g3
(I255
I255
I255
tp336
sg5
I01
sg6
I5
sg7
I3
sg8
g9
(I160
I96
I32
I32
tp337
Rp338
sba(iMap
Tiles
p339
(dp340
g3
g4
sg5
I01
sg6
I6
sg7
I3
sg8
g9
(I192
I96
I32
I32
tp341
Rp342
sba(iMap
Tiles
p343
(dp344
g3
g132
sg5
I00
sg6
I7
sg7
I3
sg8
g9
(I224
I96
I32
I32
tp345
Rp346
sba(iMap
Tiles
p347
(dp348
g3
g132
sg5
I00
sg6
I8
sg7
I3
sg8
g9
(I256
I96
I32
I32
tp349
Rp350
sba(iMap
Tiles
p351
(dp352
g3
g132
sg5
I00
sg6
I9
sg7
I3
sg8
g9
(I288
I96
I32
I32
tp353
Rp354
sba(iMap
Tiles
p355
(dp356
g3
g132
sg5
I00
sg6
I10
sg7
I3
sg8
g9
(I320
I96
I32
I32
tp357
Rp358
sba(iMap
Tiles
p359
(dp360
g3
g4
sg5
I01
sg6
I11
sg7
I3
sg8
g9
(I352
I96
I32
I32
tp361
Rp362
sba(iMap
Tiles
p363
(dp364
g3
g4
sg5
I01
sg6
I12
sg7
I3
sg8
g9
(I384
I96
I32
I32
tp365
Rp366
sba(iMap
Tiles
p367
(dp368
g3
g4
sg5
I01
sg6
I13
sg7
I3
sg8
g9
(I416
I96
I32
I32
tp369
Rp370
sba(iMap
Tiles
p371
(dp372
g3
g4
sg5
I01
sg6
I14
sg7
I3
sg8
g9
(I448
I96
I32
I32
tp373
Rp374
sba(iMap
Tiles
p375
(dp376
g3
g4
sg5
I01
sg6
I15
sg7
I3
sg8
g9
(I480
I96
I32
I32
tp377
Rp378
sba(iMap
Tiles
p379
(dp380
g3
g4
sg5
I01
sg6
I16
sg7
I3
sg8
g9
(I512
I96
I32
I32
tp381
Rp382
sba(iMap
Tiles
p383
(dp384
g3
g4
sg5
I01
sg6
I17
sg7
I3
sg8
g9
(I544
I96
I32
I32
tp385
Rp386
sba(iMap
Tiles
p387
(dp388
g3
g4
sg5
I01
sg6
I18
sg7
I3
sg8
g9
(I576
I96
I32
I32
tp389
Rp390
sba(iMap
Tiles
p391
(dp392
g3
g4
sg5
I01
sg6
I19
sg7
I3
sg8
g9
(I608
I96
I32
I32
tp393
Rp394
sba(iMap
Tiles
p395
(dp396
g3
g4
sg5
I01
sg6
I20
sg7
I3
sg8
g9
(I640
I96
I32
I32
tp397
Rp398
sba(iMap
Tiles
p399
(dp400
g3
g4
sg5
I01
sg6
I21
sg7
I3
sg8
g9
(I672
I96
I32
I32
tp401
Rp402
sba(iMap
Tiles
p403
(dp404
g3
g4
sg5
I01
sg6
I22
sg7
I3
sg8
g9
(I704
I96
I32
I32
tp405
Rp406
sba(iMap
Tiles
p407
(dp408
g3
g4
sg5
I01
sg6
I23
sg7
I3
sg8
g9
(I736
I96
I32
I32
tp409
Rp410
sba(iMap
Tiles
p411
(dp412
g3
g4
sg5
I01
sg6
I24
sg7
I3
sg8
g9
(I768
I96
I32
I32
tp413
Rp414
sba(iMap
Tiles
p415
(dp416
g3
g4
sg5
I01
sg6
I0
sg7
I4
sg8
g9
(I0
I128
I32
I32
tp417
Rp418
sba(iMap
Tiles
p419
(dp420
g3
g336
sg5
I01
sg6
I1
sg7
I4
sg8
g9
(I32
I128
I32
I32
tp421
Rp422
sba(iMap
Tiles
p423
(dp424
g3
g119
sg5
I00
sg6
I2
sg7
I4
sg8
g9
(I64
I128
I32
I32
tp425
Rp426
sba(iMap
Tiles
p427
(dp428
g3
g119
sg5
I00
sg6
I3
sg7
I4
sg8
g9
(I96
I128
I32
I32
tp429
Rp430
sba(iMap
Tiles
p431
(dp432
g3
g119
sg5
I00
sg6
I4
sg7
I4
sg8
g9
(I128
I128
I32
I32
tp433
Rp434
sba(iMap
Tiles
p435
(dp436
g3
g132
sg5
I00
sg6
I5
sg7
I4
sg8
g9
(I160
I128
I32
I32
tp437
Rp438
sba(iMap
Tiles
p439
(dp440
g3
g4
sg5
I01
sg6
I6
sg7
I4
sg8
g9
(I192
I128
I32
I32
tp441
Rp442
sba(iMap
Tiles
p443
(dp444
g3
g4
sg5
I01
sg6
I7
sg7
I4
sg8
g9
(I224
I128
I32
I32
tp445
Rp446
sba(iMap
Tiles
p447
(dp448
g3
g132
sg5
I00
sg6
I8
sg7
I4
sg8
g9
(I256
I128
I32
I32
tp449
Rp450
sba(iMap
Tiles
p451
(dp452
g3
g132
sg5
I00
sg6
I9
sg7
I4
sg8
g9
(I288
I128
I32
I32
tp453
Rp454
sba(iMap
Tiles
p455
(dp456
g3
g132
sg5
I00
sg6
I10
sg7
I4
sg8
g9
(I320
I128
I32
I32
tp457
Rp458
sba(iMap
Tiles
p459
(dp460
g3
g4
sg5
I01
sg6
I11
sg7
I4
sg8
g9
(I352
I128
I32
I32
tp461
Rp462
sba(iMap
Tiles
p463
(dp464
g3
g4
sg5
I01
sg6
I12
sg7
I4
sg8
g9
(I384
I128
I32
I32
tp465
Rp466
sba(iMap
Tiles
p467
(dp468
g3
g4
sg5
I01
sg6
I13
sg7
I4
sg8
g9
(I416
I128
I32
I32
tp469
Rp470
sba(iMap
Tiles
p471
(dp472
g3
g4
sg5
I01
sg6
I14
sg7
I4
sg8
g9
(I448
I128
I32
I32
tp473
Rp474
sba(iMap
Tiles
p475
(dp476
g3
g4
sg5
I01
sg6
I15
sg7
I4
sg8
g9
(I480
I128
I32
I32
tp477
Rp478
sba(iMap
Tiles
p479
(dp480
g3
g4
sg5
I01
sg6
I16
sg7
I4
sg8
g9
(I512
I128
I32
I32
tp481
Rp482
sba(iMap
Tiles
p483
(dp484
g3
g4
sg5
I01
sg6
I17
sg7
I4
sg8
g9
(I544
I128
I32
I32
tp485
Rp486
sba(iMap
Tiles
p487
(dp488
g3
g4
sg5
I01
sg6
I18
sg7
I4
sg8
g9
(I576
I128
I32
I32
tp489
Rp490
sba(iMap
Tiles
p491
(dp492
g3
g4
sg5
I01
sg6
I19
sg7
I4
sg8
g9
(I608
I128
I32
I32
tp493
Rp494
sba(iMap
Tiles
p495
(dp496
g3
g4
sg5
I01
sg6
I20
sg7
I4
sg8
g9
(I640
I128
I32
I32
tp497
Rp498
sba(iMap
Tiles
p499
(dp500
g3
g4
sg5
I01
sg6
I21
sg7
I4
sg8
g9
(I672
I128
I32
I32
tp501
Rp502
sba(iMap
Tiles
p503
(dp504
g3
g4
sg5
I01
sg6
I22
sg7
I4
sg8
g9
(I704
I128
I32
I32
tp505
Rp506
sba(iMap
Tiles
p507
(dp508
g3
g4
sg5
I01
sg6
I23
sg7
I4
sg8
g9
(I736
I128
I32
I32
tp509
Rp510
sba(iMap
Tiles
p511
(dp512
g3
g4
sg5
I01
sg6
I24
sg7
I4
sg8
g9
(I768
I128
I32
I32
tp513
Rp514
sba(iMap
Tiles
p515
(dp516
g3
g4
sg5
I01
sg6
I0
sg7
I5
sg8
g9
(I0
I160
I32
I32
tp517
Rp518
sba(iMap
Tiles
p519
(dp520
g3
(I0
I0
I0
tp521
sg5
I00
sg6
I1
sg7
I5
sg8
g9
(I32
I160
I32
I32
tp522
Rp523
sba(iMap
Tiles
p524
(dp525
g3
g119
sg5
I00
sg6
I2
sg7
I5
sg8
g9
(I64
I160
I32
I32
tp526
Rp527
sba(iMap
Tiles
p528
(dp529
g3
g119
sg5
I00
sg6
I3
sg7
I5
sg8
g9
(I96
I160
I32
I32
tp530
Rp531
sba(iMap
Tiles
p532
(dp533
g3
g119
sg5
I00
sg6
I4
sg7
I5
sg8
g9
(I128
I160
I32
I32
tp534
Rp535
sba(iMap
Tiles
p536
(dp537
g3
g132
sg5
I00
sg6
I5
sg7
I5
sg8
g9
(I160
I160
I32
I32
tp538
Rp539
sba(iMap
Tiles
p540
(dp541
g3
g4
sg5
I01
sg6
I6
sg7
I5
sg8
g9
(I192
I160
I32
I32
tp542
Rp543
sba(iMap
Tiles
p544
(dp545
g3
g4
sg5
I01
sg6
I7
sg7
I5
sg8
g9
(I224
I160
I32
I32
tp546
Rp547
sba(iMap
Tiles
p548
(dp549
g3
g4
sg5
I01
sg6
I8
sg7
I5
sg8
g9
(I256
I160
I32
I32
tp550
Rp551
sba(iMap
Tiles
p552
(dp553
g3
g132
sg5
I00
sg6
I9
sg7
I5
sg8
g9
(I288
I160
I32
I32
tp554
Rp555
sba(iMap
Tiles
p556
(dp557
g3
g132
sg5
I00
sg6
I10
sg7
I5
sg8
g9
(I320
I160
I32
I32
tp558
Rp559
sba(iMap
Tiles
p560
(dp561
g3
g4
sg5
I01
sg6
I11
sg7
I5
sg8
g9
(I352
I160
I32
I32
tp562
Rp563
sba(iMap
Tiles
p564
(dp565
g3
g4
sg5
I01
sg6
I12
sg7
I5
sg8
g9
(I384
I160
I32
I32
tp566
Rp567
sba(iMap
Tiles
p568
(dp569
g3
g4
sg5
I01
sg6
I13
sg7
I5
sg8
g9
(I416
I160
I32
I32
tp570
Rp571
sba(iMap
Tiles
p572
(dp573
g3
g4
sg5
I01
sg6
I14
sg7
I5
sg8
g9
(I448
I160
I32
I32
tp574
Rp575
sba(iMap
Tiles
p576
(dp577
g3
g4
sg5
I01
sg6
I15
sg7
I5
sg8
g9
(I480
I160
I32
I32
tp578
Rp579
sba(iMap
Tiles
p580
(dp581
g3
g4
sg5
I01
sg6
I16
sg7
I5
sg8
g9
(I512
I160
I32
I32
tp582
Rp583
sba(iMap
Tiles
p584
(dp585
g3
g4
sg5
I01
sg6
I17
sg7
I5
sg8
g9
(I544
I160
I32
I32
tp586
Rp587
sba(iMap
Tiles
p588
(dp589
g3
g4
sg5
I01
sg6
I18
sg7
I5
sg8
g9
(I576
I160
I32
I32
tp590
Rp591
sba(iMap
Tiles
p592
(dp593
g3
g4
sg5
I01
sg6
I19
sg7
I5
sg8
g9
(I608
I160
I32
I32
tp594
Rp595
sba(iMap
Tiles
p596
(dp597
g3
g4
sg5
I01
sg6
I20
sg7
I5
sg8
g9
(I640
I160
I32
I32
tp598
Rp599
sba(iMap
Tiles
p600
(dp601
g3
g4
sg5
I01
sg6
I21
sg7
I5
sg8
g9
(I672
I160
I32
I32
tp602
Rp603
sba(iMap
Tiles
p604
(dp605
g3
g4
sg5
I01
sg6
I22
sg7
I5
sg8
g9
(I704
I160
I32
I32
tp606
Rp607
sba(iMap
Tiles
p608
(dp609
g3
g4
sg5
I01
sg6
I23
sg7
I5
sg8
g9
(I736
I160
I32
I32
tp610
Rp611
sba(iMap
Tiles
p612
(dp613
g3
g4
sg5
I01
sg6
I24
sg7
I5
sg8
g9
(I768
I160
I32
I32
tp614
Rp615
sba(iMap
Tiles
p616
(dp617
g3
g4
sg5
I01
sg6
I0
sg7
I6
sg8
g9
(I0
I192
I32
I32
tp618
Rp619
sba(iMap
Tiles
p620
(dp621
g3
g4
sg5
I01
sg6
I1
sg7
I6
sg8
g9
(I32
I192
I32
I32
tp622
Rp623
sba(iMap
Tiles
p624
(dp625
g3
g119
sg5
I00
sg6
I2
sg7
I6
sg8
g9
(I64
I192
I32
I32
tp626
Rp627
sba(iMap
Tiles
p628
(dp629
g3
g119
sg5
I00
sg6
I3
sg7
I6
sg8
g9
(I96
I192
I32
I32
tp630
Rp631
sba(iMap
Tiles
p632
(dp633
g3
g4
sg5
I01
sg6
I4
sg7
I6
sg8
g9
(I128
I192
I32
I32
tp634
Rp635
sba(iMap
Tiles
p636
(dp637
g3
g4
sg5
I01
sg6
I5
sg7
I6
sg8
g9
(I160
I192
I32
I32
tp638
Rp639
sba(iMap
Tiles
p640
(dp641
g3
g4
sg5
I01
sg6
I6
sg7
I6
sg8
g9
(I192
I192
I32
I32
tp642
Rp643
sba(iMap
Tiles
p644
(dp645
g3
g132
sg5
I00
sg6
I7
sg7
I6
sg8
g9
(I224
I192
I32
I32
tp646
Rp647
sba(iMap
Tiles
p648
(dp649
g3
g132
sg5
I00
sg6
I8
sg7
I6
sg8
g9
(I256
I192
I32
I32
tp650
Rp651
sba(iMap
Tiles
p652
(dp653
g3
g132
sg5
I00
sg6
I9
sg7
I6
sg8
g9
(I288
I192
I32
I32
tp654
Rp655
sba(iMap
Tiles
p656
(dp657
g3
g4
sg5
I01
sg6
I10
sg7
I6
sg8
g9
(I320
I192
I32
I32
tp658
Rp659
sba(iMap
Tiles
p660
(dp661
g3
g4
sg5
I01
sg6
I11
sg7
I6
sg8
g9
(I352
I192
I32
I32
tp662
Rp663
sba(iMap
Tiles
p664
(dp665
g3
g4
sg5
I01
sg6
I12
sg7
I6
sg8
g9
(I384
I192
I32
I32
tp666
Rp667
sba(iMap
Tiles
p668
(dp669
g3
g4
sg5
I01
sg6
I13
sg7
I6
sg8
g9
(I416
I192
I32
I32
tp670
Rp671
sba(iMap
Tiles
p672
(dp673
g3
g4
sg5
I01
sg6
I14
sg7
I6
sg8
g9
(I448
I192
I32
I32
tp674
Rp675
sba(iMap
Tiles
p676
(dp677
g3
g4
sg5
I01
sg6
I15
sg7
I6
sg8
g9
(I480
I192
I32
I32
tp678
Rp679
sba(iMap
Tiles
p680
(dp681
g3
g4
sg5
I01
sg6
I16
sg7
I6
sg8
g9
(I512
I192
I32
I32
tp682
Rp683
sba(iMap
Tiles
p684
(dp685
g3
g132
sg5
I00
sg6
I17
sg7
I6
sg8
g9
(I544
I192
I32
I32
tp686
Rp687
sba(iMap
Tiles
p688
(dp689
g3
g132
sg5
I00
sg6
I18
sg7
I6
sg8
g9
(I576
I192
I32
I32
tp690
Rp691
sba(iMap
Tiles
p692
(dp693
g3
g132
sg5
I00
sg6
I19
sg7
I6
sg8
g9
(I608
I192
I32
I32
tp694
Rp695
sba(iMap
Tiles
p696
(dp697
g3
g132
sg5
I00
sg6
I20
sg7
I6
sg8
g9
(I640
I192
I32
I32
tp698
Rp699
sba(iMap
Tiles
p700
(dp701
g3
g132
sg5
I00
sg6
I21
sg7
I6
sg8
g9
(I672
I192
I32
I32
tp702
Rp703
sba(iMap
Tiles
p704
(dp705
g3
g132
sg5
I00
sg6
I22
sg7
I6
sg8
g9
(I704
I192
I32
I32
tp706
Rp707
sba(iMap
Tiles
p708
(dp709
g3
g4
sg5
I01
sg6
I23
sg7
I6
sg8
g9
(I736
I192
I32
I32
tp710
Rp711
sba(iMap
Tiles
p712
(dp713
g3
g4
sg5
I01
sg6
I24
sg7
I6
sg8
g9
(I768
I192
I32
I32
tp714
Rp715
sba(iMap
Tiles
p716
(dp717
g3
g4
sg5
I01
sg6
I0
sg7
I7
sg8
g9
(I0
I224
I32
I32
tp718
Rp719
sba(iMap
Tiles
p720
(dp721
g3
(I0
I0
I0
tp722
sg5
I00
sg6
I1
sg7
I7
sg8
g9
(I32
I224
I32
I32
tp723
Rp724
sba(iMap
Tiles
p725
(dp726
g3
g119
sg5
I00
sg6
I2
sg7
I7
sg8
g9
(I64
I224
I32
I32
tp727
Rp728
sba(iMap
Tiles
p729
(dp730
g3
g119
sg5
I00
sg6
I3
sg7
I7
sg8
g9
(I96
I224
I32
I32
tp731
Rp732
sba(iMap
Tiles
p733
(dp734
g3
g722
sg5
I00
sg6
I4
sg7
I7
sg8
g9
(I128
I224
I32
I32
tp735
Rp736
sba(iMap
Tiles
p737
(dp738
g3
g4
sg5
I01
sg6
I5
sg7
I7
sg8
g9
(I160
I224
I32
I32
tp739
Rp740
sba(iMap
Tiles
p741
(dp742
g3
g4
sg5
I01
sg6
I6
sg7
I7
sg8
g9
(I192
I224
I32
I32
tp743
Rp744
sba(iMap
Tiles
p745
(dp746
g3
g132
sg5
I00
sg6
I7
sg7
I7
sg8
g9
(I224
I224
I32
I32
tp747
Rp748
sba(iMap
Tiles
p749
(dp750
g3
g4
sg5
I01
sg6
I8
sg7
I7
sg8
g9
(I256
I224
I32
I32
tp751
Rp752
sba(iMap
Tiles
p753
(dp754
g3
g4
sg5
I01
sg6
I9
sg7
I7
sg8
g9
(I288
I224
I32
I32
tp755
Rp756
sba(iMap
Tiles
p757
(dp758
g3
g4
sg5
I01
sg6
I10
sg7
I7
sg8
g9
(I320
I224
I32
I32
tp759
Rp760
sba(iMap
Tiles
p761
(dp762
g3
g4
sg5
I01
sg6
I11
sg7
I7
sg8
g9
(I352
I224
I32
I32
tp763
Rp764
sba(iMap
Tiles
p765
(dp766
g3
g4
sg5
I01
sg6
I12
sg7
I7
sg8
g9
(I384
I224
I32
I32
tp767
Rp768
sba(iMap
Tiles
p769
(dp770
g3
g4
sg5
I01
sg6
I13
sg7
I7
sg8
g9
(I416
I224
I32
I32
tp771
Rp772
sba(iMap
Tiles
p773
(dp774
g3
g4
sg5
I01
sg6
I14
sg7
I7
sg8
g9
(I448
I224
I32
I32
tp775
Rp776
sba(iMap
Tiles
p777
(dp778
g3
g4
sg5
I01
sg6
I15
sg7
I7
sg8
g9
(I480
I224
I32
I32
tp779
Rp780
sba(iMap
Tiles
p781
(dp782
g3
g132
sg5
I00
sg6
I16
sg7
I7
sg8
g9
(I512
I224
I32
I32
tp783
Rp784
sba(iMap
Tiles
p785
(dp786
g3
g132
sg5
I00
sg6
I17
sg7
I7
sg8
g9
(I544
I224
I32
I32
tp787
Rp788
sba(iMap
Tiles
p789
(dp790
g3
g132
sg5
I00
sg6
I18
sg7
I7
sg8
g9
(I576
I224
I32
I32
tp791
Rp792
sba(iMap
Tiles
p793
(dp794
g3
g132
sg5
I00
sg6
I19
sg7
I7
sg8
g9
(I608
I224
I32
I32
tp795
Rp796
sba(iMap
Tiles
p797
(dp798
g3
g132
sg5
I00
sg6
I20
sg7
I7
sg8
g9
(I640
I224
I32
I32
tp799
Rp800
sba(iMap
Tiles
p801
(dp802
g3
g132
sg5
I00
sg6
I21
sg7
I7
sg8
g9
(I672
I224
I32
I32
tp803
Rp804
sba(iMap
Tiles
p805
(dp806
g3
g132
sg5
I00
sg6
I22
sg7
I7
sg8
g9
(I704
I224
I32
I32
tp807
Rp808
sba(iMap
Tiles
p809
(dp810
g3
g4
sg5
I01
sg6
I23
sg7
I7
sg8
g9
(I736
I224
I32
I32
tp811
Rp812
sba(iMap
Tiles
p813
(dp814
g3
g4
sg5
I01
sg6
I24
sg7
I7
sg8
g9
(I768
I224
I32
I32
tp815
Rp816
sba(iMap
Tiles
p817
(dp818
g3
g4
sg5
I01
sg6
I0
sg7
I8
sg8
g9
(I0
I256
I32
I32
tp819
Rp820
sba(iMap
Tiles
p821
(dp822
g3
g4
sg5
I01
sg6
I1
sg7
I8
sg8
g9
(I32
I256
I32
I32
tp823
Rp824
sba(iMap
Tiles
p825
(dp826
g3
g119
sg5
I00
sg6
I2
sg7
I8
sg8
g9
(I64
I256
I32
I32
tp827
Rp828
sba(iMap
Tiles
p829
(dp830
g3
g119
sg5
I00
sg6
I3
sg7
I8
sg8
g9
(I96
I256
I32
I32
tp831
Rp832
sba(iMap
Tiles
p833
(dp834
g3
(I255
I255
I255
tp835
sg5
I01
sg6
I4
sg7
I8
sg8
g9
(I128
I256
I32
I32
tp836
Rp837
sba(iMap
Tiles
p838
(dp839
g3
g835
sg5
I01
sg6
I5
sg7
I8
sg8
g9
(I160
I256
I32
I32
tp840
Rp841
sba(iMap
Tiles
p842
(dp843
g3
g4
sg5
I01
sg6
I6
sg7
I8
sg8
g9
(I192
I256
I32
I32
tp844
Rp845
sba(iMap
Tiles
p846
(dp847
g3
g132
sg5
I00
sg6
I7
sg7
I8
sg8
g9
(I224
I256
I32
I32
tp848
Rp849
sba(iMap
Tiles
p850
(dp851
g3
g4
sg5
I01
sg6
I8
sg7
I8
sg8
g9
(I256
I256
I32
I32
tp852
Rp853
sba(iMap
Tiles
p854
(dp855
g3
g4
sg5
I01
sg6
I9
sg7
I8
sg8
g9
(I288
I256
I32
I32
tp856
Rp857
sba(iMap
Tiles
p858
(dp859
g3
g4
sg5
I01
sg6
I10
sg7
I8
sg8
g9
(I320
I256
I32
I32
tp860
Rp861
sba(iMap
Tiles
p862
(dp863
g3
g4
sg5
I01
sg6
I11
sg7
I8
sg8
g9
(I352
I256
I32
I32
tp864
Rp865
sba(iMap
Tiles
p866
(dp867
g3
g4
sg5
I01
sg6
I12
sg7
I8
sg8
g9
(I384
I256
I32
I32
tp868
Rp869
sba(iMap
Tiles
p870
(dp871
g3
g4
sg5
I01
sg6
I13
sg7
I8
sg8
g9
(I416
I256
I32
I32
tp872
Rp873
sba(iMap
Tiles
p874
(dp875
g3
g4
sg5
I01
sg6
I14
sg7
I8
sg8
g9
(I448
I256
I32
I32
tp876
Rp877
sba(iMap
Tiles
p878
(dp879
g3
g132
sg5
I00
sg6
I15
sg7
I8
sg8
g9
(I480
I256
I32
I32
tp880
Rp881
sba(iMap
Tiles
p882
(dp883
g3
g132
sg5
I00
sg6
I16
sg7
I8
sg8
g9
(I512
I256
I32
I32
tp884
Rp885
sba(iMap
Tiles
p886
(dp887
g3
g4
sg5
I01
sg6
I17
sg7
I8
sg8
g9
(I544
I256
I32
I32
tp888
Rp889
sba(iMap
Tiles
p890
(dp891
g3
g4
sg5
I01
sg6
I18
sg7
I8
sg8
g9
(I576
I256
I32
I32
tp892
Rp893
sba(iMap
Tiles
p894
(dp895
g3
g4
sg5
I01
sg6
I19
sg7
I8
sg8
g9
(I608
I256
I32
I32
tp896
Rp897
sba(iMap
Tiles
p898
(dp899
g3
g4
sg5
I01
sg6
I20
sg7
I8
sg8
g9
(I640
I256
I32
I32
tp900
Rp901
sba(iMap
Tiles
p902
(dp903
g3
g4
sg5
I01
sg6
I21
sg7
I8
sg8
g9
(I672
I256
I32
I32
tp904
Rp905
sba(iMap
Tiles
p906
(dp907
g3
g4
sg5
I01
sg6
I22
sg7
I8
sg8
g9
(I704
I256
I32
I32
tp908
Rp909
sba(iMap
Tiles
p910
(dp911
g3
g4
sg5
I01
sg6
I23
sg7
I8
sg8
g9
(I736
I256
I32
I32
tp912
Rp913
sba(iMap
Tiles
p914
(dp915
g3
g4
sg5
I01
sg6
I24
sg7
I8
sg8
g9
(I768
I256
I32
I32
tp916
Rp917
sba(iMap
Tiles
p918
(dp919
g3
g4
sg5
I01
sg6
I0
sg7
I9
sg8
g9
(I0
I288
I32
I32
tp920
Rp921
sba(iMap
Tiles
p922
(dp923
g3
g4
sg5
I01
sg6
I1
sg7
I9
sg8
g9
(I32
I288
I32
I32
tp924
Rp925
sba(iMap
Tiles
p926
(dp927
g3
g4
sg5
I01
sg6
I2
sg7
I9
sg8
g9
(I64
I288
I32
I32
tp928
Rp929
sba(iMap
Tiles
p930
(dp931
g3
g835
sg5
I01
sg6
I3
sg7
I9
sg8
g9
(I96
I288
I32
I32
tp932
Rp933
sba(iMap
Tiles
p934
(dp935
g3
g835
sg5
I01
sg6
I4
sg7
I9
sg8
g9
(I128
I288
I32
I32
tp936
Rp937
sba(iMap
Tiles
p938
(dp939
g3
g835
sg5
I01
sg6
I5
sg7
I9
sg8
g9
(I160
I288
I32
I32
tp940
Rp941
sba(iMap
Tiles
p942
(dp943
g3
g835
sg5
I01
sg6
I6
sg7
I9
sg8
g9
(I192
I288
I32
I32
tp944
Rp945
sba(iMap
Tiles
p946
(dp947
g3
g132
sg5
I00
sg6
I7
sg7
I9
sg8
g9
(I224
I288
I32
I32
tp948
Rp949
sba(iMap
Tiles
p950
(dp951
g3
g835
sg5
I01
sg6
I8
sg7
I9
sg8
g9
(I256
I288
I32
I32
tp952
Rp953
sba(iMap
Tiles
p954
(dp955
g3
g4
sg5
I01
sg6
I9
sg7
I9
sg8
g9
(I288
I288
I32
I32
tp956
Rp957
sba(iMap
Tiles
p958
(dp959
g3
(I255
I255
I255
tp960
sg5
I01
sg6
I10
sg7
I9
sg8
g9
(I320
I288
I32
I32
tp961
Rp962
sba(iMap
Tiles
p963
(dp964
g3
g4
sg5
I01
sg6
I11
sg7
I9
sg8
g9
(I352
I288
I32
I32
tp965
Rp966
sba(iMap
Tiles
p967
(dp968
g3
g4
sg5
I01
sg6
I12
sg7
I9
sg8
g9
(I384
I288
I32
I32
tp969
Rp970
sba(iMap
Tiles
p971
(dp972
g3
g4
sg5
I01
sg6
I13
sg7
I9
sg8
g9
(I416
I288
I32
I32
tp973
Rp974
sba(iMap
Tiles
p975
(dp976
g3
g4
sg5
I01
sg6
I14
sg7
I9
sg8
g9
(I448
I288
I32
I32
tp977
Rp978
sba(iMap
Tiles
p979
(dp980
g3
g132
sg5
I00
sg6
I15
sg7
I9
sg8
g9
(I480
I288
I32
I32
tp981
Rp982
sba(iMap
Tiles
p983
(dp984
g3
g132
sg5
I00
sg6
I16
sg7
I9
sg8
g9
(I512
I288
I32
I32
tp985
Rp986
sba(iMap
Tiles
p987
(dp988
g3
g4
sg5
I01
sg6
I17
sg7
I9
sg8
g9
(I544
I288
I32
I32
tp989
Rp990
sba(iMap
Tiles
p991
(dp992
g3
g4
sg5
I01
sg6
I18
sg7
I9
sg8
g9
(I576
I288
I32
I32
tp993
Rp994
sba(iMap
Tiles
p995
(dp996
g3
g4
sg5
I01
sg6
I19
sg7
I9
sg8
g9
(I608
I288
I32
I32
tp997
Rp998
sba(iMap
Tiles
p999
(dp1000
g3
g4
sg5
I01
sg6
I20
sg7
I9
sg8
g9
(I640
I288
I32
I32
tp1001
Rp1002
sba(iMap
Tiles
p1003
(dp1004
g3
g4
sg5
I01
sg6
I21
sg7
I9
sg8
g9
(I672
I288
I32
I32
tp1005
Rp1006
sba(iMap
Tiles
p1007
(dp1008
g3
g4
sg5
I01
sg6
I22
sg7
I9
sg8
g9
(I704
I288
I32
I32
tp1009
Rp1010
sba(iMap
Tiles
p1011
(dp1012
g3
g4
sg5
I01
sg6
I23
sg7
I9
sg8
g9
(I736
I288
I32
I32
tp1013
Rp1014
sba(iMap
Tiles
p1015
(dp1016
g3
g4
sg5
I01
sg6
I24
sg7
I9
sg8
g9
(I768
I288
I32
I32
tp1017
Rp1018
sba(iMap
Tiles
p1019
(dp1020
g3
g4
sg5
I01
sg6
I0
sg7
I10
sg8
g9
(I0
I320
I32
I32
tp1021
Rp1022
sba(iMap
Tiles
p1023
(dp1024
g3
g4
sg5
I01
sg6
I1
sg7
I10
sg8
g9
(I32
I320
I32
I32
tp1025
Rp1026
sba(iMap
Tiles
p1027
(dp1028
g3
g4
sg5
I01
sg6
I2
sg7
I10
sg8
g9
(I64
I320
I32
I32
tp1029
Rp1030
sba(iMap
Tiles
p1031
(dp1032
g3
g4
sg5
I01
sg6
I3
sg7
I10
sg8
g9
(I96
I320
I32
I32
tp1033
Rp1034
sba(iMap
Tiles
p1035
(dp1036
g3
g4
sg5
I01
sg6
I4
sg7
I10
sg8
g9
(I128
I320
I32
I32
tp1037
Rp1038
sba(iMap
Tiles
p1039
(dp1040
g3
g835
sg5
I01
sg6
I5
sg7
I10
sg8
g9
(I160
I320
I32
I32
tp1041
Rp1042
sba(iMap
Tiles
p1043
(dp1044
g3
g835
sg5
I01
sg6
I6
sg7
I10
sg8
g9
(I192
I320
I32
I32
tp1045
Rp1046
sba(iMap
Tiles
p1047
(dp1048
g3
g132
sg5
I00
sg6
I7
sg7
I10
sg8
g9
(I224
I320
I32
I32
tp1049
Rp1050
sba(iMap
Tiles
p1051
(dp1052
g3
g132
sg5
I00
sg6
I8
sg7
I10
sg8
g9
(I256
I320
I32
I32
tp1053
Rp1054
sba(iMap
Tiles
p1055
(dp1056
g3
g132
sg5
I00
sg6
I9
sg7
I10
sg8
g9
(I288
I320
I32
I32
tp1057
Rp1058
sba(iMap
Tiles
p1059
(dp1060
g3
g132
sg5
I00
sg6
I10
sg7
I10
sg8
g9
(I320
I320
I32
I32
tp1061
Rp1062
sba(iMap
Tiles
p1063
(dp1064
g3
g132
sg5
I00
sg6
I11
sg7
I10
sg8
g9
(I352
I320
I32
I32
tp1065
Rp1066
sba(iMap
Tiles
p1067
(dp1068
g3
g132
sg5
I00
sg6
I12
sg7
I10
sg8
g9
(I384
I320
I32
I32
tp1069
Rp1070
sba(iMap
Tiles
p1071
(dp1072
g3
g132
sg5
I00
sg6
I13
sg7
I10
sg8
g9
(I416
I320
I32
I32
tp1073
Rp1074
sba(iMap
Tiles
p1075
(dp1076
g3
g132
sg5
I00
sg6
I14
sg7
I10
sg8
g9
(I448
I320
I32
I32
tp1077
Rp1078
sba(iMap
Tiles
p1079
(dp1080
g3
g132
sg5
I00
sg6
I15
sg7
I10
sg8
g9
(I480
I320
I32
I32
tp1081
Rp1082
sba(iMap
Tiles
p1083
(dp1084
g3
g4
sg5
I01
sg6
I16
sg7
I10
sg8
g9
(I512
I320
I32
I32
tp1085
Rp1086
sba(iMap
Tiles
p1087
(dp1088
g3
g4
sg5
I01
sg6
I17
sg7
I10
sg8
g9
(I544
I320
I32
I32
tp1089
Rp1090
sba(iMap
Tiles
p1091
(dp1092
g3
g4
sg5
I01
sg6
I18
sg7
I10
sg8
g9
(I576
I320
I32
I32
tp1093
Rp1094
sba(iMap
Tiles
p1095
(dp1096
g3
g4
sg5
I01
sg6
I19
sg7
I10
sg8
g9
(I608
I320
I32
I32
tp1097
Rp1098
sba(iMap
Tiles
p1099
(dp1100
g3
g4
sg5
I01
sg6
I20
sg7
I10
sg8
g9
(I640
I320
I32
I32
tp1101
Rp1102
sba(iMap
Tiles
p1103
(dp1104
g3
g4
sg5
I01
sg6
I21
sg7
I10
sg8
g9
(I672
I320
I32
I32
tp1105
Rp1106
sba(iMap
Tiles
p1107
(dp1108
g3
g4
sg5
I01
sg6
I22
sg7
I10
sg8
g9
(I704
I320
I32
I32
tp1109
Rp1110
sba(iMap
Tiles
p1111
(dp1112
g3
g4
sg5
I01
sg6
I23
sg7
I10
sg8
g9
(I736
I320
I32
I32
tp1113
Rp1114
sba(iMap
Tiles
p1115
(dp1116
g3
g4
sg5
I01
sg6
I24
sg7
I10
sg8
g9
(I768
I320
I32
I32
tp1117
Rp1118
sba(iMap
Tiles
p1119
(dp1120
g3
g4
sg5
I01
sg6
I0
sg7
I11
sg8
g9
(I0
I352
I32
I32
tp1121
Rp1122
sba(iMap
Tiles
p1123
(dp1124
g3
g4
sg5
I01
sg6
I1
sg7
I11
sg8
g9
(I32
I352
I32
I32
tp1125
Rp1126
sba(iMap
Tiles
p1127
(dp1128
g3
g4
sg5
I01
sg6
I2
sg7
I11
sg8
g9
(I64
I352
I32
I32
tp1129
Rp1130
sba(iMap
Tiles
p1131
(dp1132
g3
g4
sg5
I01
sg6
I3
sg7
I11
sg8
g9
(I96
I352
I32
I32
tp1133
Rp1134
sba(iMap
Tiles
p1135
(dp1136
g3
g4
sg5
I01
sg6
I4
sg7
I11
sg8
g9
(I128
I352
I32
I32
tp1137
Rp1138
sba(iMap
Tiles
p1139
(dp1140
g3
g4
sg5
I01
sg6
I5
sg7
I11
sg8
g9
(I160
I352
I32
I32
tp1141
Rp1142
sba(iMap
Tiles
p1143
(dp1144
g3
g835
sg5
I01
sg6
I6
sg7
I11
sg8
g9
(I192
I352
I32
I32
tp1145
Rp1146
sba(iMap
Tiles
p1147
(dp1148
g3
g835
sg5
I01
sg6
I7
sg7
I11
sg8
g9
(I224
I352
I32
I32
tp1149
Rp1150
sba(iMap
Tiles
p1151
(dp1152
g3
g4
sg5
I01
sg6
I8
sg7
I11
sg8
g9
(I256
I352
I32
I32
tp1153
Rp1154
sba(iMap
Tiles
p1155
(dp1156
g3
g26
sg5
I01
sg6
I9
sg7
I11
sg8
g9
(I288
I352
I32
I32
tp1157
Rp1158
sba(iMap
Tiles
p1159
(dp1160
g3
g132
sg5
I00
sg6
I10
sg7
I11
sg8
g9
(I320
I352
I32
I32
tp1161
Rp1162
sba(iMap
Tiles
p1163
(dp1164
g3
g132
sg5
I00
sg6
I11
sg7
I11
sg8
g9
(I352
I352
I32
I32
tp1165
Rp1166
sba(iMap
Tiles
p1167
(dp1168
g3
g26
sg5
I01
sg6
I12
sg7
I11
sg8
g9
(I384
I352
I32
I32
tp1169
Rp1170
sba(iMap
Tiles
p1171
(dp1172
g3
g4
sg5
I01
sg6
I13
sg7
I11
sg8
g9
(I416
I352
I32
I32
tp1173
Rp1174
sba(iMap
Tiles
p1175
(dp1176
g3
g4
sg5
I01
sg6
I14
sg7
I11
sg8
g9
(I448
I352
I32
I32
tp1177
Rp1178
sba(iMap
Tiles
p1179
(dp1180
g3
g4
sg5
I01
sg6
I15
sg7
I11
sg8
g9
(I480
I352
I32
I32
tp1181
Rp1182
sba(iMap
Tiles
p1183
(dp1184
g3
g4
sg5
I01
sg6
I16
sg7
I11
sg8
g9
(I512
I352
I32
I32
tp1185
Rp1186
sba(iMap
Tiles
p1187
(dp1188
g3
g4
sg5
I01
sg6
I17
sg7
I11
sg8
g9
(I544
I352
I32
I32
tp1189
Rp1190
sba(iMap
Tiles
p1191
(dp1192
g3
g4
sg5
I01
sg6
I18
sg7
I11
sg8
g9
(I576
I352
I32
I32
tp1193
Rp1194
sba(iMap
Tiles
p1195
(dp1196
g3
g4
sg5
I01
sg6
I19
sg7
I11
sg8
g9
(I608
I352
I32
I32
tp1197
Rp1198
sba(iMap
Tiles
p1199
(dp1200
g3
g4
sg5
I01
sg6
I20
sg7
I11
sg8
g9
(I640
I352
I32
I32
tp1201
Rp1202
sba(iMap
Tiles
p1203
(dp1204
g3
g4
sg5
I01
sg6
I21
sg7
I11
sg8
g9
(I672
I352
I32
I32
tp1205
Rp1206
sba(iMap
Tiles
p1207
(dp1208
g3
g4
sg5
I01
sg6
I22
sg7
I11
sg8
g9
(I704
I352
I32
I32
tp1209
Rp1210
sba(iMap
Tiles
p1211
(dp1212
g3
g4
sg5
I01
sg6
I23
sg7
I11
sg8
g9
(I736
I352
I32
I32
tp1213
Rp1214
sba(iMap
Tiles
p1215
(dp1216
g3
g4
sg5
I01
sg6
I24
sg7
I11
sg8
g9
(I768
I352
I32
I32
tp1217
Rp1218
sba(iMap
Tiles
p1219
(dp1220
g3
g4
sg5
I01
sg6
I0
sg7
I12
sg8
g9
(I0
I384
I32
I32
tp1221
Rp1222
sba(iMap
Tiles
p1223
(dp1224
g3
g4
sg5
I01
sg6
I1
sg7
I12
sg8
g9
(I32
I384
I32
I32
tp1225
Rp1226
sba(iMap
Tiles
p1227
(dp1228
g3
g4
sg5
I01
sg6
I2
sg7
I12
sg8
g9
(I64
I384
I32
I32
tp1229
Rp1230
sba(iMap
Tiles
p1231
(dp1232
g3
g4
sg5
I01
sg6
I3
sg7
I12
sg8
g9
(I96
I384
I32
I32
tp1233
Rp1234
sba(iMap
Tiles
p1235
(dp1236
g3
g4
sg5
I01
sg6
I4
sg7
I12
sg8
g9
(I128
I384
I32
I32
tp1237
Rp1238
sba(iMap
Tiles
p1239
(dp1240
g3
g4
sg5
I01
sg6
I5
sg7
I12
sg8
g9
(I160
I384
I32
I32
tp1241
Rp1242
sba(iMap
Tiles
p1243
(dp1244
g3
g835
sg5
I01
sg6
I6
sg7
I12
sg8
g9
(I192
I384
I32
I32
tp1245
Rp1246
sba(iMap
Tiles
p1247
(dp1248
g3
g835
sg5
I01
sg6
I7
sg7
I12
sg8
g9
(I224
I384
I32
I32
tp1249
Rp1250
sba(iMap
Tiles
p1251
(dp1252
g3
g835
sg5
I01
sg6
I8
sg7
I12
sg8
g9
(I256
I384
I32
I32
tp1253
Rp1254
sba(iMap
Tiles
p1255
(dp1256
g3
g26
sg5
I01
sg6
I9
sg7
I12
sg8
g9
(I288
I384
I32
I32
tp1257
Rp1258
sba(iMap
Tiles
p1259
(dp1260
g3
g132
sg5
I00
sg6
I10
sg7
I12
sg8
g9
(I320
I384
I32
I32
tp1261
Rp1262
sba(iMap
Tiles
p1263
(dp1264
g3
g132
sg5
I00
sg6
I11
sg7
I12
sg8
g9
(I352
I384
I32
I32
tp1265
Rp1266
sba(iMap
Tiles
p1267
(dp1268
g3
g26
sg5
I01
sg6
I12
sg7
I12
sg8
g9
(I384
I384
I32
I32
tp1269
Rp1270
sba(iMap
Tiles
p1271
(dp1272
g3
g4
sg5
I01
sg6
I13
sg7
I12
sg8
g9
(I416
I384
I32
I32
tp1273
Rp1274
sba(iMap
Tiles
p1275
(dp1276
g3
g4
sg5
I01
sg6
I14
sg7
I12
sg8
g9
(I448
I384
I32
I32
tp1277
Rp1278
sba(iMap
Tiles
p1279
(dp1280
g3
g4
sg5
I01
sg6
I15
sg7
I12
sg8
g9
(I480
I384
I32
I32
tp1281
Rp1282
sba(iMap
Tiles
p1283
(dp1284
g3
g4
sg5
I01
sg6
I16
sg7
I12
sg8
g9
(I512
I384
I32
I32
tp1285
Rp1286
sba(iMap
Tiles
p1287
(dp1288
g3
g4
sg5
I01
sg6
I17
sg7
I12
sg8
g9
(I544
I384
I32
I32
tp1289
Rp1290
sba(iMap
Tiles
p1291
(dp1292
g3
g4
sg5
I01
sg6
I18
sg7
I12
sg8
g9
(I576
I384
I32
I32
tp1293
Rp1294
sba(iMap
Tiles
p1295
(dp1296
g3
g4
sg5
I01
sg6
I19
sg7
I12
sg8
g9
(I608
I384
I32
I32
tp1297
Rp1298
sba(iMap
Tiles
p1299
(dp1300
g3
g4
sg5
I01
sg6
I20
sg7
I12
sg8
g9
(I640
I384
I32
I32
tp1301
Rp1302
sba(iMap
Tiles
p1303
(dp1304
g3
g4
sg5
I01
sg6
I21
sg7
I12
sg8
g9
(I672
I384
I32
I32
tp1305
Rp1306
sba(iMap
Tiles
p1307
(dp1308
g3
g4
sg5
I01
sg6
I22
sg7
I12
sg8
g9
(I704
I384
I32
I32
tp1309
Rp1310
sba(iMap
Tiles
p1311
(dp1312
g3
g4
sg5
I01
sg6
I23
sg7
I12
sg8
g9
(I736
I384
I32
I32
tp1313
Rp1314
sba(iMap
Tiles
p1315
(dp1316
g3
g4
sg5
I01
sg6
I24
sg7
I12
sg8
g9
(I768
I384
I32
I32
tp1317
Rp1318
sba(iMap
Tiles
p1319
(dp1320
g3
g4
sg5
I01
sg6
I0
sg7
I13
sg8
g9
(I0
I416
I32
I32
tp1321
Rp1322
sba(iMap
Tiles
p1323
(dp1324
g3
g4
sg5
I01
sg6
I1
sg7
I13
sg8
g9
(I32
I416
I32
I32
tp1325
Rp1326
sba(iMap
Tiles
p1327
(dp1328
g3
g4
sg5
I01
sg6
I2
sg7
I13
sg8
g9
(I64
I416
I32
I32
tp1329
Rp1330
sba(iMap
Tiles
p1331
(dp1332
g3
g4
sg5
I01
sg6
I3
sg7
I13
sg8
g9
(I96
I416
I32
I32
tp1333
Rp1334
sba(iMap
Tiles
p1335
(dp1336
g3
g4
sg5
I01
sg6
I4
sg7
I13
sg8
g9
(I128
I416
I32
I32
tp1337
Rp1338
sba(iMap
Tiles
p1339
(dp1340
g3
g4
sg5
I01
sg6
I5
sg7
I13
sg8
g9
(I160
I416
I32
I32
tp1341
Rp1342
sba(iMap
Tiles
p1343
(dp1344
g3
g4
sg5
I01
sg6
I6
sg7
I13
sg8
g9
(I192
I416
I32
I32
tp1345
Rp1346
sba(iMap
Tiles
p1347
(dp1348
g3
g835
sg5
I01
sg6
I7
sg7
I13
sg8
g9
(I224
I416
I32
I32
tp1349
Rp1350
sba(iMap
Tiles
p1351
(dp1352
g3
g835
sg5
I01
sg6
I8
sg7
I13
sg8
g9
(I256
I416
I32
I32
tp1353
Rp1354
sba(iMap
Tiles
p1355
(dp1356
g3
g26
sg5
I01
sg6
I9
sg7
I13
sg8
g9
(I288
I416
I32
I32
tp1357
Rp1358
sba(iMap
Tiles
p1359
(dp1360
g3
g132
sg5
I00
sg6
I10
sg7
I13
sg8
g9
(I320
I416
I32
I32
tp1361
Rp1362
sba(iMap
Tiles
p1363
(dp1364
g3
g132
sg5
I00
sg6
I11
sg7
I13
sg8
g9
(I352
I416
I32
I32
tp1365
Rp1366
sba(iMap
Tiles
p1367
(dp1368
g3
g26
sg5
I01
sg6
I12
sg7
I13
sg8
g9
(I384
I416
I32
I32
tp1369
Rp1370
sba(iMap
Tiles
p1371
(dp1372
g3
g4
sg5
I01
sg6
I13
sg7
I13
sg8
g9
(I416
I416
I32
I32
tp1373
Rp1374
sba(iMap
Tiles
p1375
(dp1376
g3
g4
sg5
I01
sg6
I14
sg7
I13
sg8
g9
(I448
I416
I32
I32
tp1377
Rp1378
sba(iMap
Tiles
p1379
(dp1380
g3
g4
sg5
I01
sg6
I15
sg7
I13
sg8
g9
(I480
I416
I32
I32
tp1381
Rp1382
sba(iMap
Tiles
p1383
(dp1384
g3
g4
sg5
I01
sg6
I16
sg7
I13
sg8
g9
(I512
I416
I32
I32
tp1385
Rp1386
sba(iMap
Tiles
p1387
(dp1388
g3
g4
sg5
I01
sg6
I17
sg7
I13
sg8
g9
(I544
I416
I32
I32
tp1389
Rp1390
sba(iMap
Tiles
p1391
(dp1392
g3
g4
sg5
I01
sg6
I18
sg7
I13
sg8
g9
(I576
I416
I32
I32
tp1393
Rp1394
sba(iMap
Tiles
p1395
(dp1396
g3
g4
sg5
I01
sg6
I19
sg7
I13
sg8
g9
(I608
I416
I32
I32
tp1397
Rp1398
sba(iMap
Tiles
p1399
(dp1400
g3
g4
sg5
I01
sg6
I20
sg7
I13
sg8
g9
(I640
I416
I32
I32
tp1401
Rp1402
sba(iMap
Tiles
p1403
(dp1404
g3
g4
sg5
I01
sg6
I21
sg7
I13
sg8
g9
(I672
I416
I32
I32
tp1405
Rp1406
sba(iMap
Tiles
p1407
(dp1408
g3
g4
sg5
I01
sg6
I22
sg7
I13
sg8
g9
(I704
I416
I32
I32
tp1409
Rp1410
sba(iMap
Tiles
p1411
(dp1412
g3
g4
sg5
I01
sg6
I23
sg7
I13
sg8
g9
(I736
I416
I32
I32
tp1413
Rp1414
sba(iMap
Tiles
p1415
(dp1416
g3
g4
sg5
I01
sg6
I24
sg7
I13
sg8
g9
(I768
I416
I32
I32
tp1417
Rp1418
sba(iMap
Tiles
p1419
(dp1420
g3
g4
sg5
I01
sg6
I0
sg7
I14
sg8
g9
(I0
I448
I32
I32
tp1421
Rp1422
sba(iMap
Tiles
p1423
(dp1424
g3
g4
sg5
I01
sg6
I1
sg7
I14
sg8
g9
(I32
I448
I32
I32
tp1425
Rp1426
sba(iMap
Tiles
p1427
(dp1428
g3
g4
sg5
I01
sg6
I2
sg7
I14
sg8
g9
(I64
I448
I32
I32
tp1429
Rp1430
sba(iMap
Tiles
p1431
(dp1432
g3
g4
sg5
I01
sg6
I3
sg7
I14
sg8
g9
(I96
I448
I32
I32
tp1433
Rp1434
sba(iMap
Tiles
p1435
(dp1436
g3
g4
sg5
I01
sg6
I4
sg7
I14
sg8
g9
(I128
I448
I32
I32
tp1437
Rp1438
sba(iMap
Tiles
p1439
(dp1440
g3
g4
sg5
I01
sg6
I5
sg7
I14
sg8
g9
(I160
I448
I32
I32
tp1441
Rp1442
sba(iMap
Tiles
p1443
(dp1444
g3
g4
sg5
I01
sg6
I6
sg7
I14
sg8
g9
(I192
I448
I32
I32
tp1445
Rp1446
sba(iMap
Tiles
p1447
(dp1448
g3
g4
sg5
I01
sg6
I7
sg7
I14
sg8
g9
(I224
I448
I32
I32
tp1449
Rp1450
sba(iMap
Tiles
p1451
(dp1452
g3
g835
sg5
I01
sg6
I8
sg7
I14
sg8
g9
(I256
I448
I32
I32
tp1453
Rp1454
sba(iMap
Tiles
p1455
(dp1456
g3
g835
sg5
I01
sg6
I9
sg7
I14
sg8
g9
(I288
I448
I32
I32
tp1457
Rp1458
sba(iMap
Tiles
p1459
(dp1460
g3
g4
sg5
I01
sg6
I10
sg7
I14
sg8
g9
(I320
I448
I32
I32
tp1461
Rp1462
sba(iMap
Tiles
p1463
(dp1464
g3
g4
sg5
I01
sg6
I11
sg7
I14
sg8
g9
(I352
I448
I32
I32
tp1465
Rp1466
sba(iMap
Tiles
p1467
(dp1468
g3
g4
sg5
I01
sg6
I12
sg7
I14
sg8
g9
(I384
I448
I32
I32
tp1469
Rp1470
sba(iMap
Tiles
p1471
(dp1472
g3
g4
sg5
I01
sg6
I13
sg7
I14
sg8
g9
(I416
I448
I32
I32
tp1473
Rp1474
sba(iMap
Tiles
p1475
(dp1476
g3
g4
sg5
I01
sg6
I14
sg7
I14
sg8
g9
(I448
I448
I32
I32
tp1477
Rp1478
sba(iMap
Tiles
p1479
(dp1480
g3
g4
sg5
I01
sg6
I15
sg7
I14
sg8
g9
(I480
I448
I32
I32
tp1481
Rp1482
sba(iMap
Tiles
p1483
(dp1484
g3
g4
sg5
I01
sg6
I16
sg7
I14
sg8
g9
(I512
I448
I32
I32
tp1485
Rp1486
sba(iMap
Tiles
p1487
(dp1488
g3
g4
sg5
I01
sg6
I17
sg7
I14
sg8
g9
(I544
I448
I32
I32
tp1489
Rp1490
sba(iMap
Tiles
p1491
(dp1492
g3
g4
sg5
I01
sg6
I18
sg7
I14
sg8
g9
(I576
I448
I32
I32
tp1493
Rp1494
sba(iMap
Tiles
p1495
(dp1496
g3
g4
sg5
I01
sg6
I19
sg7
I14
sg8
g9
(I608
I448
I32
I32
tp1497
Rp1498
sba(iMap
Tiles
p1499
(dp1500
g3
g4
sg5
I01
sg6
I20
sg7
I14
sg8
g9
(I640
I448
I32
I32
tp1501
Rp1502
sba(iMap
Tiles
p1503
(dp1504
g3
g4
sg5
I01
sg6
I21
sg7
I14
sg8
g9
(I672
I448
I32
I32
tp1505
Rp1506
sba(iMap
Tiles
p1507
(dp1508
g3
g4
sg5
I01
sg6
I22
sg7
I14
sg8
g9
(I704
I448
I32
I32
tp1509
Rp1510
sba(iMap
Tiles
p1511
(dp1512
g3
g4
sg5
I01
sg6
I23
sg7
I14
sg8
g9
(I736
I448
I32
I32
tp1513
Rp1514
sba(iMap
Tiles
p1515
(dp1516
g3
g4
sg5
I01
sg6
I24
sg7
I14
sg8
g9
(I768
I448
I32
I32
tp1517
Rp1518
sba(iMap
Tiles
p1519
(dp1520
g3
g4
sg5
I01
sg6
I0
sg7
I15
sg8
g9
(I0
I480
I32
I32
tp1521
Rp1522
sba(iMap
Tiles
p1523
(dp1524
g3
g4
sg5
I01
sg6
I1
sg7
I15
sg8
g9
(I32
I480
I32
I32
tp1525
Rp1526
sba(iMap
Tiles
p1527
(dp1528
g3
g4
sg5
I01
sg6
I2
sg7
I15
sg8
g9
(I64
I480
I32
I32
tp1529
Rp1530
sba(iMap
Tiles
p1531
(dp1532
g3
g4
sg5
I01
sg6
I3
sg7
I15
sg8
g9
(I96
I480
I32
I32
tp1533
Rp1534
sba(iMap
Tiles
p1535
(dp1536
g3
g4
sg5
I01
sg6
I4
sg7
I15
sg8
g9
(I128
I480
I32
I32
tp1537
Rp1538
sba(iMap
Tiles
p1539
(dp1540
g3
g4
sg5
I01
sg6
I5
sg7
I15
sg8
g9
(I160
I480
I32
I32
tp1541
Rp1542
sba(iMap
Tiles
p1543
(dp1544
g3
g4
sg5
I01
sg6
I6
sg7
I15
sg8
g9
(I192
I480
I32
I32
tp1545
Rp1546
sba(iMap
Tiles
p1547
(dp1548
g3
g4
sg5
I01
sg6
I7
sg7
I15
sg8
g9
(I224
I480
I32
I32
tp1549
Rp1550
sba(iMap
Tiles
p1551
(dp1552
g3
g4
sg5
I01
sg6
I8
sg7
I15
sg8
g9
(I256
I480
I32
I32
tp1553
Rp1554
sba(iMap
Tiles
p1555
(dp1556
g3
g835
sg5
I01
sg6
I9
sg7
I15
sg8
g9
(I288
I480
I32
I32
tp1557
Rp1558
sba(iMap
Tiles
p1559
(dp1560
g3
g835
sg5
I01
sg6
I10
sg7
I15
sg8
g9
(I320
I480
I32
I32
tp1561
Rp1562
sba(iMap
Tiles
p1563
(dp1564
g3
g4
sg5
I01
sg6
I11
sg7
I15
sg8
g9
(I352
I480
I32
I32
tp1565
Rp1566
sba(iMap
Tiles
p1567
(dp1568
g3
g4
sg5
I01
sg6
I12
sg7
I15
sg8
g9
(I384
I480
I32
I32
tp1569
Rp1570
sba(iMap
Tiles
p1571
(dp1572
g3
g4
sg5
I01
sg6
I13
sg7
I15
sg8
g9
(I416
I480
I32
I32
tp1573
Rp1574
sba(iMap
Tiles
p1575
(dp1576
g3
g4
sg5
I01
sg6
I14
sg7
I15
sg8
g9
(I448
I480
I32
I32
tp1577
Rp1578
sba(iMap
Tiles
p1579
(dp1580
g3
g4
sg5
I01
sg6
I15
sg7
I15
sg8
g9
(I480
I480
I32
I32
tp1581
Rp1582
sba(iMap
Tiles
p1583
(dp1584
g3
g4
sg5
I01
sg6
I16
sg7
I15
sg8
g9
(I512
I480
I32
I32
tp1585
Rp1586
sba(iMap
Tiles
p1587
(dp1588
g3
g4
sg5
I01
sg6
I17
sg7
I15
sg8
g9
(I544
I480
I32
I32
tp1589
Rp1590
sba(iMap
Tiles
p1591
(dp1592
g3
g4
sg5
I01
sg6
I18
sg7
I15
sg8
g9
(I576
I480
I32
I32
tp1593
Rp1594
sba(iMap
Tiles
p1595
(dp1596
g3
g4
sg5
I01
sg6
I19
sg7
I15
sg8
g9
(I608
I480
I32
I32
tp1597
Rp1598
sba(iMap
Tiles
p1599
(dp1600
g3
g4
sg5
I01
sg6
I20
sg7
I15
sg8
g9
(I640
I480
I32
I32
tp1601
Rp1602
sba(iMap
Tiles
p1603
(dp1604
g3
g4
sg5
I01
sg6
I21
sg7
I15
sg8
g9
(I672
I480
I32
I32
tp1605
Rp1606
sba(iMap
Tiles
p1607
(dp1608
g3
g4
sg5
I01
sg6
I22
sg7
I15
sg8
g9
(I704
I480
I32
I32
tp1609
Rp1610
sba(iMap
Tiles
p1611
(dp1612
g3
g4
sg5
I01
sg6
I23
sg7
I15
sg8
g9
(I736
I480
I32
I32
tp1613
Rp1614
sba(iMap
Tiles
p1615
(dp1616
g3
g4
sg5
I01
sg6
I24
sg7
I15
sg8
g9
(I768
I480
I32
I32
tp1617
Rp1618
sba(iMap
Tiles
p1619
(dp1620
g3
g4
sg5
I01
sg6
I0
sg7
I16
sg8
g9
(I0
I512
I32
I32
tp1621
Rp1622
sba(iMap
Tiles
p1623
(dp1624
g3
g4
sg5
I01
sg6
I1
sg7
I16
sg8
g9
(I32
I512
I32
I32
tp1625
Rp1626
sba(iMap
Tiles
p1627
(dp1628
g3
g4
sg5
I01
sg6
I2
sg7
I16
sg8
g9
(I64
I512
I32
I32
tp1629
Rp1630
sba(iMap
Tiles
p1631
(dp1632
g3
g4
sg5
I01
sg6
I3
sg7
I16
sg8
g9
(I96
I512
I32
I32
tp1633
Rp1634
sba(iMap
Tiles
p1635
(dp1636
g3
g4
sg5
I01
sg6
I4
sg7
I16
sg8
g9
(I128
I512
I32
I32
tp1637
Rp1638
sba(iMap
Tiles
p1639
(dp1640
g3
g4
sg5
I01
sg6
I5
sg7
I16
sg8
g9
(I160
I512
I32
I32
tp1641
Rp1642
sba(iMap
Tiles
p1643
(dp1644
g3
g4
sg5
I01
sg6
I6
sg7
I16
sg8
g9
(I192
I512
I32
I32
tp1645
Rp1646
sba(iMap
Tiles
p1647
(dp1648
g3
g4
sg5
I01
sg6
I7
sg7
I16
sg8
g9
(I224
I512
I32
I32
tp1649
Rp1650
sba(iMap
Tiles
p1651
(dp1652
g3
g4
sg5
I01
sg6
I8
sg7
I16
sg8
g9
(I256
I512
I32
I32
tp1653
Rp1654
sba(iMap
Tiles
p1655
(dp1656
g3
g4
sg5
I01
sg6
I9
sg7
I16
sg8
g9
(I288
I512
I32
I32
tp1657
Rp1658
sba(iMap
Tiles
p1659
(dp1660
g3
g835
sg5
I01
sg6
I10
sg7
I16
sg8
g9
(I320
I512
I32
I32
tp1661
Rp1662
sba(iMap
Tiles
p1663
(dp1664
g3
g835
sg5
I01
sg6
I11
sg7
I16
sg8
g9
(I352
I512
I32
I32
tp1665
Rp1666
sba(iMap
Tiles
p1667
(dp1668
g3
g4
sg5
I01
sg6
I12
sg7
I16
sg8
g9
(I384
I512
I32
I32
tp1669
Rp1670
sba(iMap
Tiles
p1671
(dp1672
g3
g4
sg5
I01
sg6
I13
sg7
I16
sg8
g9
(I416
I512
I32
I32
tp1673
Rp1674
sba(iMap
Tiles
p1675
(dp1676
g3
g4
sg5
I01
sg6
I14
sg7
I16
sg8
g9
(I448
I512
I32
I32
tp1677
Rp1678
sba(iMap
Tiles
p1679
(dp1680
g3
g4
sg5
I01
sg6
I15
sg7
I16
sg8
g9
(I480
I512
I32
I32
tp1681
Rp1682
sba(iMap
Tiles
p1683
(dp1684
g3
g4
sg5
I01
sg6
I16
sg7
I16
sg8
g9
(I512
I512
I32
I32
tp1685
Rp1686
sba(iMap
Tiles
p1687
(dp1688
g3
g4
sg5
I01
sg6
I17
sg7
I16
sg8
g9
(I544
I512
I32
I32
tp1689
Rp1690
sba(iMap
Tiles
p1691
(dp1692
g3
g4
sg5
I01
sg6
I18
sg7
I16
sg8
g9
(I576
I512
I32
I32
tp1693
Rp1694
sba(iMap
Tiles
p1695
(dp1696
g3
g4
sg5
I01
sg6
I19
sg7
I16
sg8
g9
(I608
I512
I32
I32
tp1697
Rp1698
sba(iMap
Tiles
p1699
(dp1700
g3
g4
sg5
I01
sg6
I20
sg7
I16
sg8
g9
(I640
I512
I32
I32
tp1701
Rp1702
sba(iMap
Tiles
p1703
(dp1704
g3
g4
sg5
I01
sg6
I21
sg7
I16
sg8
g9
(I672
I512
I32
I32
tp1705
Rp1706
sba(iMap
Tiles
p1707
(dp1708
g3
g4
sg5
I01
sg6
I22
sg7
I16
sg8
g9
(I704
I512
I32
I32
tp1709
Rp1710
sba(iMap
Tiles
p1711
(dp1712
g3
g4
sg5
I01
sg6
I23
sg7
I16
sg8
g9
(I736
I512
I32
I32
tp1713
Rp1714
sba(iMap
Tiles
p1715
(dp1716
g3
g4
sg5
I01
sg6
I24
sg7
I16
sg8
g9
(I768
I512
I32
I32
tp1717
Rp1718
sba(iMap
Tiles
p1719
(dp1720
g3
g4
sg5
I01
sg6
I0
sg7
I17
sg8
g9
(I0
I544
I32
I32
tp1721
Rp1722
sba(iMap
Tiles
p1723
(dp1724
g3
g4
sg5
I01
sg6
I1
sg7
I17
sg8
g9
(I32
I544
I32
I32
tp1725
Rp1726
sba(iMap
Tiles
p1727
(dp1728
g3
g4
sg5
I01
sg6
I2
sg7
I17
sg8
g9
(I64
I544
I32
I32
tp1729
Rp1730
sba(iMap
Tiles
p1731
(dp1732
g3
g4
sg5
I01
sg6
I3
sg7
I17
sg8
g9
(I96
I544
I32
I32
tp1733
Rp1734
sba(iMap
Tiles
p1735
(dp1736
g3
g4
sg5
I01
sg6
I4
sg7
I17
sg8
g9
(I128
I544
I32
I32
tp1737
Rp1738
sba(iMap
Tiles
p1739
(dp1740
g3
g4
sg5
I01
sg6
I5
sg7
I17
sg8
g9
(I160
I544
I32
I32
tp1741
Rp1742
sba(iMap
Tiles
p1743
(dp1744
g3
g4
sg5
I01
sg6
I6
sg7
I17
sg8
g9
(I192
I544
I32
I32
tp1745
Rp1746
sba(iMap
Tiles
p1747
(dp1748
g3
g4
sg5
I01
sg6
I7
sg7
I17
sg8
g9
(I224
I544
I32
I32
tp1749
Rp1750
sba(iMap
Tiles
p1751
(dp1752
g3
g4
sg5
I01
sg6
I8
sg7
I17
sg8
g9
(I256
I544
I32
I32
tp1753
Rp1754
sba(iMap
Tiles
p1755
(dp1756
g3
g4
sg5
I01
sg6
I9
sg7
I17
sg8
g9
(I288
I544
I32
I32
tp1757
Rp1758
sba(iMap
Tiles
p1759
(dp1760
g3
g4
sg5
I01
sg6
I10
sg7
I17
sg8
g9
(I320
I544
I32
I32
tp1761
Rp1762
sba(iMap
Tiles
p1763
(dp1764
g3
g835
sg5
I01
sg6
I11
sg7
I17
sg8
g9
(I352
I544
I32
I32
tp1765
Rp1766
sba(iMap
Tiles
p1767
(dp1768
g3
g835
sg5
I01
sg6
I12
sg7
I17
sg8
g9
(I384
I544
I32
I32
tp1769
Rp1770
sba(iMap
Tiles
p1771
(dp1772
g3
g4
sg5
I01
sg6
I13
sg7
I17
sg8
g9
(I416
I544
I32
I32
tp1773
Rp1774
sba(iMap
Tiles
p1775
(dp1776
g3
g4
sg5
I01
sg6
I14
sg7
I17
sg8
g9
(I448
I544
I32
I32
tp1777
Rp1778
sba(iMap
Tiles
p1779
(dp1780
g3
g4
sg5
I01
sg6
I15
sg7
I17
sg8
g9
(I480
I544
I32
I32
tp1781
Rp1782
sba(iMap
Tiles
p1783
(dp1784
g3
g4
sg5
I01
sg6
I16
sg7
I17
sg8
g9
(I512
I544
I32
I32
tp1785
Rp1786
sba(iMap
Tiles
p1787
(dp1788
g3
g4
sg5
I01
sg6
I17
sg7
I17
sg8
g9
(I544
I544
I32
I32
tp1789
Rp1790
sba(iMap
Tiles
p1791
(dp1792
g3
g4
sg5
I01
sg6
I18
sg7
I17
sg8
g9
(I576
I544
I32
I32
tp1793
Rp1794
sba(iMap
Tiles
p1795
(dp1796
g3
g4
sg5
I01
sg6
I19
sg7
I17
sg8
g9
(I608
I544
I32
I32
tp1797
Rp1798
sba(iMap
Tiles
p1799
(dp1800
g3
g4
sg5
I01
sg6
I20
sg7
I17
sg8
g9
(I640
I544
I32
I32
tp1801
Rp1802
sba(iMap
Tiles
p1803
(dp1804
g3
g4
sg5
I01
sg6
I21
sg7
I17
sg8
g9
(I672
I544
I32
I32
tp1805
Rp1806
sba(iMap
Tiles
p1807
(dp1808
g3
g4
sg5
I01
sg6
I22
sg7
I17
sg8
g9
(I704
I544
I32
I32
tp1809
Rp1810
sba(iMap
Tiles
p1811
(dp1812
g3
g4
sg5
I01
sg6
I23
sg7
I17
sg8
g9
(I736
I544
I32
I32
tp1813
Rp1814
sba(iMap
Tiles
p1815
(dp1816
g3
g4
sg5
I01
sg6
I24
sg7
I17
sg8
g9
(I768
I544
I32
I32
tp1817
Rp1818
sba(iMap
Tiles
p1819
(dp1820
g3
g4
sg5
I01
sg6
I0
sg7
I18
sg8
g9
(I0
I576
I32
I32
tp1821
Rp1822
sba(iMap
Tiles
p1823
(dp1824
g3
g4
sg5
I01
sg6
I1
sg7
I18
sg8
g9
(I32
I576
I32
I32
tp1825
Rp1826
sba(iMap
Tiles
p1827
(dp1828
g3
g4
sg5
I01
sg6
I2
sg7
I18
sg8
g9
(I64
I576
I32
I32
tp1829
Rp1830
sba(iMap
Tiles
p1831
(dp1832
g3
g4
sg5
I01
sg6
I3
sg7
I18
sg8
g9
(I96
I576
I32
I32
tp1833
Rp1834
sba(iMap
Tiles
p1835
(dp1836
g3
g4
sg5
I01
sg6
I4
sg7
I18
sg8
g9
(I128
I576
I32
I32
tp1837
Rp1838
sba(iMap
Tiles
p1839
(dp1840
g3
g4
sg5
I01
sg6
I5
sg7
I18
sg8
g9
(I160
I576
I32
I32
tp1841
Rp1842
sba(iMap
Tiles
p1843
(dp1844
g3
g4
sg5
I01
sg6
I6
sg7
I18
sg8
g9
(I192
I576
I32
I32
tp1845
Rp1846
sba(iMap
Tiles
p1847
(dp1848
g3
g4
sg5
I01
sg6
I7
sg7
I18
sg8
g9
(I224
I576
I32
I32
tp1849
Rp1850
sba(iMap
Tiles
p1851
(dp1852
g3
g4
sg5
I01
sg6
I8
sg7
I18
sg8
g9
(I256
I576
I32
I32
tp1853
Rp1854
sba(iMap
Tiles
p1855
(dp1856
g3
g4
sg5
I01
sg6
I9
sg7
I18
sg8
g9
(I288
I576
I32
I32
tp1857
Rp1858
sba(iMap
Tiles
p1859
(dp1860
g3
g4
sg5
I01
sg6
I10
sg7
I18
sg8
g9
(I320
I576
I32
I32
tp1861
Rp1862
sba(iMap
Tiles
p1863
(dp1864
g3
g4
sg5
I01
sg6
I11
sg7
I18
sg8
g9
(I352
I576
I32
I32
tp1865
Rp1866
sba(iMap
Tiles
p1867
(dp1868
g3
g835
sg5
I01
sg6
I12
sg7
I18
sg8
g9
(I384
I576
I32
I32
tp1869
Rp1870
sba(iMap
Tiles
p1871
(dp1872
g3
g835
sg5
I01
sg6
I13
sg7
I18
sg8
g9
(I416
I576
I32
I32
tp1873
Rp1874
sba(iMap
Tiles
p1875
(dp1876
g3
g4
sg5
I01
sg6
I14
sg7
I18
sg8
g9
(I448
I576
I32
I32
tp1877
Rp1878
sba(iMap
Tiles
p1879
(dp1880
g3
g4
sg5
I01
sg6
I15
sg7
I18
sg8
g9
(I480
I576
I32
I32
tp1881
Rp1882
sba(iMap
Tiles
p1883
(dp1884
g3
g4
sg5
I01
sg6
I16
sg7
I18
sg8
g9
(I512
I576
I32
I32
tp1885
Rp1886
sba(iMap
Tiles
p1887
(dp1888
g3
g4
sg5
I01
sg6
I17
sg7
I18
sg8
g9
(I544
I576
I32
I32
tp1889
Rp1890
sba(iMap
Tiles
p1891
(dp1892
g3
g4
sg5
I01
sg6
I18
sg7
I18
sg8
g9
(I576
I576
I32
I32
tp1893
Rp1894
sba(iMap
Tiles
p1895
(dp1896
g3
g4
sg5
I01
sg6
I19
sg7
I18
sg8
g9
(I608
I576
I32
I32
tp1897
Rp1898
sba(iMap
Tiles
p1899
(dp1900
g3
g4
sg5
I01
sg6
I20
sg7
I18
sg8
g9
(I640
I576
I32
I32
tp1901
Rp1902
sba(iMap
Tiles
p1903
(dp1904
g3
g4
sg5
I01
sg6
I21
sg7
I18
sg8
g9
(I672
I576
I32
I32
tp1905
Rp1906
sba(iMap
Tiles
p1907
(dp1908
g3
g4
sg5
I01
sg6
I22
sg7
I18
sg8
g9
(I704
I576
I32
I32
tp1909
Rp1910
sba(iMap
Tiles
p1911
(dp1912
g3
g4
sg5
I01
sg6
I23
sg7
I18
sg8
g9
(I736
I576
I32
I32
tp1913
Rp1914
sba(iMap
Tiles
p1915
(dp1916
g3
g4
sg5
I01
sg6
I24
sg7
I18
sg8
g9
(I768
I576
I32
I32
tp1917
Rp1918
sba(iMap
Tiles
p1919
(dp1920
g3
g4
sg5
I01
sg6
I0
sg7
I19
sg8
g9
(I0
I608
I32
I32
tp1921
Rp1922
sba(iMap
Tiles
p1923
(dp1924
g3
g4
sg5
I01
sg6
I1
sg7
I19
sg8
g9
(I32
I608
I32
I32
tp1925
Rp1926
sba(iMap
Tiles
p1927
(dp1928
g3
g4
sg5
I01
sg6
I2
sg7
I19
sg8
g9
(I64
I608
I32
I32
tp1929
Rp1930
sba(iMap
Tiles
p1931
(dp1932
g3
g4
sg5
I01
sg6
I3
sg7
I19
sg8
g9
(I96
I608
I32
I32
tp1933
Rp1934
sba(iMap
Tiles
p1935
(dp1936
g3
g4
sg5
I01
sg6
I4
sg7
I19
sg8
g9
(I128
I608
I32
I32
tp1937
Rp1938
sba(iMap
Tiles
p1939
(dp1940
g3
g4
sg5
I01
sg6
I5
sg7
I19
sg8
g9
(I160
I608
I32
I32
tp1941
Rp1942
sba(iMap
Tiles
p1943
(dp1944
g3
g4
sg5
I01
sg6
I6
sg7
I19
sg8
g9
(I192
I608
I32
I32
tp1945
Rp1946
sba(iMap
Tiles
p1947
(dp1948
g3
g4
sg5
I01
sg6
I7
sg7
I19
sg8
g9
(I224
I608
I32
I32
tp1949
Rp1950
sba(iMap
Tiles
p1951
(dp1952
g3
g4
sg5
I01
sg6
I8
sg7
I19
sg8
g9
(I256
I608
I32
I32
tp1953
Rp1954
sba(iMap
Tiles
p1955
(dp1956
g3
g4
sg5
I01
sg6
I9
sg7
I19
sg8
g9
(I288
I608
I32
I32
tp1957
Rp1958
sba(iMap
Tiles
p1959
(dp1960
g3
g4
sg5
I01
sg6
I10
sg7
I19
sg8
g9
(I320
I608
I32
I32
tp1961
Rp1962
sba(iMap
Tiles
p1963
(dp1964
g3
g4
sg5
I01
sg6
I11
sg7
I19
sg8
g9
(I352
I608
I32
I32
tp1965
Rp1966
sba(iMap
Tiles
p1967
(dp1968
g3
g4
sg5
I01
sg6
I12
sg7
I19
sg8
g9
(I384
I608
I32
I32
tp1969
Rp1970
sba(iMap
Tiles
p1971
(dp1972
g3
g835
sg5
I01
sg6
I13
sg7
I19
sg8
g9
(I416
I608
I32
I32
tp1973
Rp1974
sba(iMap
Tiles
p1975
(dp1976
g3
g835
sg5
I01
sg6
I14
sg7
I19
sg8
g9
(I448
I608
I32
I32
tp1977
Rp1978
sba(iMap
Tiles
p1979
(dp1980
g3
g4
sg5
I01
sg6
I15
sg7
I19
sg8
g9
(I480
I608
I32
I32
tp1981
Rp1982
sba(iMap
Tiles
p1983
(dp1984
g3
g4
sg5
I01
sg6
I16
sg7
I19
sg8
g9
(I512
I608
I32
I32
tp1985
Rp1986
sba(iMap
Tiles
p1987
(dp1988
g3
g4
sg5
I01
sg6
I17
sg7
I19
sg8
g9
(I544
I608
I32
I32
tp1989
Rp1990
sba(iMap
Tiles
p1991
(dp1992
g3
g4
sg5
I01
sg6
I18
sg7
I19
sg8
g9
(I576
I608
I32
I32
tp1993
Rp1994
sba(iMap
Tiles
p1995
(dp1996
g3
g4
sg5
I01
sg6
I19
sg7
I19
sg8
g9
(I608
I608
I32
I32
tp1997
Rp1998
sba(iMap
Tiles
p1999
(dp2000
g3
g4
sg5
I01
sg6
I20
sg7
I19
sg8
g9
(I640
I608
I32
I32
tp2001
Rp2002
sba(iMap
Tiles
p2003
(dp2004
g3
g4
sg5
I01
sg6
I21
sg7
I19
sg8
g9
(I672
I608
I32
I32
tp2005
Rp2006
sba(iMap
Tiles
p2007
(dp2008
g3
g4
sg5
I01
sg6
I22
sg7
I19
sg8
g9
(I704
I608
I32
I32
tp2009
Rp2010
sba(iMap
Tiles
p2011
(dp2012
g3
g4
sg5
I01
sg6
I23
sg7
I19
sg8
g9
(I736
I608
I32
I32
tp2013
Rp2014
sba(iMap
Tiles
p2015
(dp2016
g3
g4
sg5
I01
sg6
I24
sg7
I19
sg8
g9
(I768
I608
I32
I32
tp2017
Rp2018
sba(iMap
Tiles
p2019
(dp2020
g3
g4
sg5
I01
sg6
I0
sg7
I20
sg8
g9
(I0
I640
I32
I32
tp2021
Rp2022
sba(iMap
Tiles
p2023
(dp2024
g3
g4
sg5
I01
sg6
I1
sg7
I20
sg8
g9
(I32
I640
I32
I32
tp2025
Rp2026
sba(iMap
Tiles
p2027
(dp2028
g3
g4
sg5
I01
sg6
I2
sg7
I20
sg8
g9
(I64
I640
I32
I32
tp2029
Rp2030
sba(iMap
Tiles
p2031
(dp2032
g3
g4
sg5
I01
sg6
I3
sg7
I20
sg8
g9
(I96
I640
I32
I32
tp2033
Rp2034
sba(iMap
Tiles
p2035
(dp2036
g3
g4
sg5
I01
sg6
I4
sg7
I20
sg8
g9
(I128
I640
I32
I32
tp2037
Rp2038
sba(iMap
Tiles
p2039
(dp2040
g3
g4
sg5
I01
sg6
I5
sg7
I20
sg8
g9
(I160
I640
I32
I32
tp2041
Rp2042
sba(iMap
Tiles
p2043
(dp2044
g3
g4
sg5
I01
sg6
I6
sg7
I20
sg8
g9
(I192
I640
I32
I32
tp2045
Rp2046
sba(iMap
Tiles
p2047
(dp2048
g3
g4
sg5
I01
sg6
I7
sg7
I20
sg8
g9
(I224
I640
I32
I32
tp2049
Rp2050
sba(iMap
Tiles
p2051
(dp2052
g3
g4
sg5
I01
sg6
I8
sg7
I20
sg8
g9
(I256
I640
I32
I32
tp2053
Rp2054
sba(iMap
Tiles
p2055
(dp2056
g3
g4
sg5
I01
sg6
I9
sg7
I20
sg8
g9
(I288
I640
I32
I32
tp2057
Rp2058
sba(iMap
Tiles
p2059
(dp2060
g3
g4
sg5
I01
sg6
I10
sg7
I20
sg8
g9
(I320
I640
I32
I32
tp2061
Rp2062
sba(iMap
Tiles
p2063
(dp2064
g3
g4
sg5
I01
sg6
I11
sg7
I20
sg8
g9
(I352
I640
I32
I32
tp2065
Rp2066
sba(iMap
Tiles
p2067
(dp2068
g3
g4
sg5
I01
sg6
I12
sg7
I20
sg8
g9
(I384
I640
I32
I32
tp2069
Rp2070
sba(iMap
Tiles
p2071
(dp2072
g3
g4
sg5
I01
sg6
I13
sg7
I20
sg8
g9
(I416
I640
I32
I32
tp2073
Rp2074
sba(iMap
Tiles
p2075
(dp2076
g3
g4
sg5
I01
sg6
I14
sg7
I20
sg8
g9
(I448
I640
I32
I32
tp2077
Rp2078
sba(iMap
Tiles
p2079
(dp2080
g3
g4
sg5
I01
sg6
I15
sg7
I20
sg8
g9
(I480
I640
I32
I32
tp2081
Rp2082
sba(iMap
Tiles
p2083
(dp2084
g3
g4
sg5
I01
sg6
I16
sg7
I20
sg8
g9
(I512
I640
I32
I32
tp2085
Rp2086
sba(iMap
Tiles
p2087
(dp2088
g3
g4
sg5
I01
sg6
I17
sg7
I20
sg8
g9
(I544
I640
I32
I32
tp2089
Rp2090
sba(iMap
Tiles
p2091
(dp2092
g3
g4
sg5
I01
sg6
I18
sg7
I20
sg8
g9
(I576
I640
I32
I32
tp2093
Rp2094
sba(iMap
Tiles
p2095
(dp2096
g3
g4
sg5
I01
sg6
I19
sg7
I20
sg8
g9
(I608
I640
I32
I32
tp2097
Rp2098
sba(iMap
Tiles
p2099
(dp2100
g3
g4
sg5
I01
sg6
I20
sg7
I20
sg8
g9
(I640
I640
I32
I32
tp2101
Rp2102
sba(iMap
Tiles
p2103
(dp2104
g3
g4
sg5
I01
sg6
I21
sg7
I20
sg8
g9
(I672
I640
I32
I32
tp2105
Rp2106
sba(iMap
Tiles
p2107
(dp2108
g3
g4
sg5
I01
sg6
I22
sg7
I20
sg8
g9
(I704
I640
I32
I32
tp2109
Rp2110
sba(iMap
Tiles
p2111
(dp2112
g3
g4
sg5
I01
sg6
I23
sg7
I20
sg8
g9
(I736
I640
I32
I32
tp2113
Rp2114
sba(iMap
Tiles
p2115
(dp2116
g3
g4
sg5
I01
sg6
I24
sg7
I20
sg8
g9
(I768
I640
I32
I32
tp2117
Rp2118
sba(iMap
Tiles
p2119
(dp2120
g3
g4
sg5
I01
sg6
I0
sg7
I21
sg8
g9
(I0
I672
I32
I32
tp2121
Rp2122
sba(iMap
Tiles
p2123
(dp2124
g3
g4
sg5
I01
sg6
I1
sg7
I21
sg8
g9
(I32
I672
I32
I32
tp2125
Rp2126
sba(iMap
Tiles
p2127
(dp2128
g3
g4
sg5
I01
sg6
I2
sg7
I21
sg8
g9
(I64
I672
I32
I32
tp2129
Rp2130
sba(iMap
Tiles
p2131
(dp2132
g3
g4
sg5
I01
sg6
I3
sg7
I21
sg8
g9
(I96
I672
I32
I32
tp2133
Rp2134
sba(iMap
Tiles
p2135
(dp2136
g3
g4
sg5
I01
sg6
I4
sg7
I21
sg8
g9
(I128
I672
I32
I32
tp2137
Rp2138
sba(iMap
Tiles
p2139
(dp2140
g3
g4
sg5
I01
sg6
I5
sg7
I21
sg8
g9
(I160
I672
I32
I32
tp2141
Rp2142
sba(iMap
Tiles
p2143
(dp2144
g3
g4
sg5
I01
sg6
I6
sg7
I21
sg8
g9
(I192
I672
I32
I32
tp2145
Rp2146
sba(iMap
Tiles
p2147
(dp2148
g3
g4
sg5
I01
sg6
I7
sg7
I21
sg8
g9
(I224
I672
I32
I32
tp2149
Rp2150
sba(iMap
Tiles
p2151
(dp2152
g3
g4
sg5
I01
sg6
I8
sg7
I21
sg8
g9
(I256
I672
I32
I32
tp2153
Rp2154
sba(iMap
Tiles
p2155
(dp2156
g3
g4
sg5
I01
sg6
I9
sg7
I21
sg8
g9
(I288
I672
I32
I32
tp2157
Rp2158
sba(iMap
Tiles
p2159
(dp2160
g3
g4
sg5
I01
sg6
I10
sg7
I21
sg8
g9
(I320
I672
I32
I32
tp2161
Rp2162
sba(iMap
Tiles
p2163
(dp2164
g3
g4
sg5
I01
sg6
I11
sg7
I21
sg8
g9
(I352
I672
I32
I32
tp2165
Rp2166
sba(iMap
Tiles
p2167
(dp2168
g3
g4
sg5
I01
sg6
I12
sg7
I21
sg8
g9
(I384
I672
I32
I32
tp2169
Rp2170
sba(iMap
Tiles
p2171
(dp2172
g3
g4
sg5
I01
sg6
I13
sg7
I21
sg8
g9
(I416
I672
I32
I32
tp2173
Rp2174
sba(iMap
Tiles
p2175
(dp2176
g3
g4
sg5
I01
sg6
I14
sg7
I21
sg8
g9
(I448
I672
I32
I32
tp2177
Rp2178
sba(iMap
Tiles
p2179
(dp2180
g3
g4
sg5
I01
sg6
I15
sg7
I21
sg8
g9
(I480
I672
I32
I32
tp2181
Rp2182
sba(iMap
Tiles
p2183
(dp2184
g3
g4
sg5
I01
sg6
I16
sg7
I21
sg8
g9
(I512
I672
I32
I32
tp2185
Rp2186
sba(iMap
Tiles
p2187
(dp2188
g3
g4
sg5
I01
sg6
I17
sg7
I21
sg8
g9
(I544
I672
I32
I32
tp2189
Rp2190
sba(iMap
Tiles
p2191
(dp2192
g3
g4
sg5
I01
sg6
I18
sg7
I21
sg8
g9
(I576
I672
I32
I32
tp2193
Rp2194
sba(iMap
Tiles
p2195
(dp2196
g3
g4
sg5
I01
sg6
I19
sg7
I21
sg8
g9
(I608
I672
I32
I32
tp2197
Rp2198
sba(iMap
Tiles
p2199
(dp2200
g3
g4
sg5
I01
sg6
I20
sg7
I21
sg8
g9
(I640
I672
I32
I32
tp2201
Rp2202
sba(iMap
Tiles
p2203
(dp2204
g3
g4
sg5
I01
sg6
I21
sg7
I21
sg8
g9
(I672
I672
I32
I32
tp2205
Rp2206
sba(iMap
Tiles
p2207
(dp2208
g3
g4
sg5
I01
sg6
I22
sg7
I21
sg8
g9
(I704
I672
I32
I32
tp2209
Rp2210
sba(iMap
Tiles
p2211
(dp2212
g3
g4
sg5
I01
sg6
I23
sg7
I21
sg8
g9
(I736
I672
I32
I32
tp2213
Rp2214
sba(iMap
Tiles
p2215
(dp2216
g3
g4
sg5
I01
sg6
I24
sg7
I21
sg8
g9
(I768
I672
I32
I32
tp2217
Rp2218
sba(iMap
Tiles
p2219
(dp2220
g3
g4
sg5
I01
sg6
I0
sg7
I22
sg8
g9
(I0
I704
I32
I32
tp2221
Rp2222
sba(iMap
Tiles
p2223
(dp2224
g3
g4
sg5
I01
sg6
I1
sg7
I22
sg8
g9
(I32
I704
I32
I32
tp2225
Rp2226
sba(iMap
Tiles
p2227
(dp2228
g3
g4
sg5
I01
sg6
I2
sg7
I22
sg8
g9
(I64
I704
I32
I32
tp2229
Rp2230
sba(iMap
Tiles
p2231
(dp2232
g3
g4
sg5
I01
sg6
I3
sg7
I22
sg8
g9
(I96
I704
I32
I32
tp2233
Rp2234
sba(iMap
Tiles
p2235
(dp2236
g3
g4
sg5
I01
sg6
I4
sg7
I22
sg8
g9
(I128
I704
I32
I32
tp2237
Rp2238
sba(iMap
Tiles
p2239
(dp2240
g3
g4
sg5
I01
sg6
I5
sg7
I22
sg8
g9
(I160
I704
I32
I32
tp2241
Rp2242
sba(iMap
Tiles
p2243
(dp2244
g3
g4
sg5
I01
sg6
I6
sg7
I22
sg8
g9
(I192
I704
I32
I32
tp2245
Rp2246
sba(iMap
Tiles
p2247
(dp2248
g3
g4
sg5
I01
sg6
I7
sg7
I22
sg8
g9
(I224
I704
I32
I32
tp2249
Rp2250
sba(iMap
Tiles
p2251
(dp2252
g3
g4
sg5
I01
sg6
I8
sg7
I22
sg8
g9
(I256
I704
I32
I32
tp2253
Rp2254
sba(iMap
Tiles
p2255
(dp2256
g3
g4
sg5
I01
sg6
I9
sg7
I22
sg8
g9
(I288
I704
I32
I32
tp2257
Rp2258
sba(iMap
Tiles
p2259
(dp2260
g3
g4
sg5
I01
sg6
I10
sg7
I22
sg8
g9
(I320
I704
I32
I32
tp2261
Rp2262
sba(iMap
Tiles
p2263
(dp2264
g3
g4
sg5
I01
sg6
I11
sg7
I22
sg8
g9
(I352
I704
I32
I32
tp2265
Rp2266
sba(iMap
Tiles
p2267
(dp2268
g3
g4
sg5
I01
sg6
I12
sg7
I22
sg8
g9
(I384
I704
I32
I32
tp2269
Rp2270
sba(iMap
Tiles
p2271
(dp2272
g3
g4
sg5
I01
sg6
I13
sg7
I22
sg8
g9
(I416
I704
I32
I32
tp2273
Rp2274
sba(iMap
Tiles
p2275
(dp2276
g3
g4
sg5
I01
sg6
I14
sg7
I22
sg8
g9
(I448
I704
I32
I32
tp2277
Rp2278
sba(iMap
Tiles
p2279
(dp2280
g3
g4
sg5
I01
sg6
I15
sg7
I22
sg8
g9
(I480
I704
I32
I32
tp2281
Rp2282
sba(iMap
Tiles
p2283
(dp2284
g3
g4
sg5
I01
sg6
I16
sg7
I22
sg8
g9
(I512
I704
I32
I32
tp2285
Rp2286
sba(iMap
Tiles
p2287
(dp2288
g3
g4
sg5
I01
sg6
I17
sg7
I22
sg8
g9
(I544
I704
I32
I32
tp2289
Rp2290
sba(iMap
Tiles
p2291
(dp2292
g3
g4
sg5
I01
sg6
I18
sg7
I22
sg8
g9
(I576
I704
I32
I32
tp2293
Rp2294
sba(iMap
Tiles
p2295
(dp2296
g3
g4
sg5
I01
sg6
I19
sg7
I22
sg8
g9
(I608
I704
I32
I32
tp2297
Rp2298
sba(iMap
Tiles
p2299
(dp2300
g3
g4
sg5
I01
sg6
I20
sg7
I22
sg8
g9
(I640
I704
I32
I32
tp2301
Rp2302
sba(iMap
Tiles
p2303
(dp2304
g3
g4
sg5
I01
sg6
I21
sg7
I22
sg8
g9
(I672
I704
I32
I32
tp2305
Rp2306
sba(iMap
Tiles
p2307
(dp2308
g3
g4
sg5
I01
sg6
I22
sg7
I22
sg8
g9
(I704
I704
I32
I32
tp2309
Rp2310
sba(iMap
Tiles
p2311
(dp2312
g3
g4
sg5
I01
sg6
I23
sg7
I22
sg8
g9
(I736
I704
I32
I32
tp2313
Rp2314
sba(iMap
Tiles
p2315
(dp2316
g3
g4
sg5
I01
sg6
I24
sg7
I22
sg8
g9
(I768
I704
I32
I32
tp2317
Rp2318
sba(iMap
Tiles
p2319
(dp2320
g3
g4
sg5
I01
sg6
I0
sg7
I23
sg8
g9
(I0
I736
I32
I32
tp2321
Rp2322
sba(iMap
Tiles
p2323
(dp2324
g3
g4
sg5
I01
sg6
I1
sg7
I23
sg8
g9
(I32
I736
I32
I32
tp2325
Rp2326
sba(iMap
Tiles
p2327
(dp2328
g3
g4
sg5
I01
sg6
I2
sg7
I23
sg8
g9
(I64
I736
I32
I32
tp2329
Rp2330
sba(iMap
Tiles
p2331
(dp2332
g3
g4
sg5
I01
sg6
I3
sg7
I23
sg8
g9
(I96
I736
I32
I32
tp2333
Rp2334
sba(iMap
Tiles
p2335
(dp2336
g3
g4
sg5
I01
sg6
I4
sg7
I23
sg8
g9
(I128
I736
I32
I32
tp2337
Rp2338
sba(iMap
Tiles
p2339
(dp2340
g3
g4
sg5
I01
sg6
I5
sg7
I23
sg8
g9
(I160
I736
I32
I32
tp2341
Rp2342
sba(iMap
Tiles
p2343
(dp2344
g3
g4
sg5
I01
sg6
I6
sg7
I23
sg8
g9
(I192
I736
I32
I32
tp2345
Rp2346
sba(iMap
Tiles
p2347
(dp2348
g3
g4
sg5
I01
sg6
I7
sg7
I23
sg8
g9
(I224
I736
I32
I32
tp2349
Rp2350
sba(iMap
Tiles
p2351
(dp2352
g3
g4
sg5
I01
sg6
I8
sg7
I23
sg8
g9
(I256
I736
I32
I32
tp2353
Rp2354
sba(iMap
Tiles
p2355
(dp2356
g3
g4
sg5
I01
sg6
I9
sg7
I23
sg8
g9
(I288
I736
I32
I32
tp2357
Rp2358
sba(iMap
Tiles
p2359
(dp2360
g3
g4
sg5
I01
sg6
I10
sg7
I23
sg8
g9
(I320
I736
I32
I32
tp2361
Rp2362
sba(iMap
Tiles
p2363
(dp2364
g3
g4
sg5
I01
sg6
I11
sg7
I23
sg8
g9
(I352
I736
I32
I32
tp2365
Rp2366
sba(iMap
Tiles
p2367
(dp2368
g3
g4
sg5
I01
sg6
I12
sg7
I23
sg8
g9
(I384
I736
I32
I32
tp2369
Rp2370
sba(iMap
Tiles
p2371
(dp2372
g3
g4
sg5
I01
sg6
I13
sg7
I23
sg8
g9
(I416
I736
I32
I32
tp2373
Rp2374
sba(iMap
Tiles
p2375
(dp2376
g3
g4
sg5
I01
sg6
I14
sg7
I23
sg8
g9
(I448
I736
I32
I32
tp2377
Rp2378
sba(iMap
Tiles
p2379
(dp2380
g3
g4
sg5
I01
sg6
I15
sg7
I23
sg8
g9
(I480
I736
I32
I32
tp2381
Rp2382
sba(iMap
Tiles
p2383
(dp2384
g3
g4
sg5
I01
sg6
I16
sg7
I23
sg8
g9
(I512
I736
I32
I32
tp2385
Rp2386
sba(iMap
Tiles
p2387
(dp2388
g3
g4
sg5
I01
sg6
I17
sg7
I23
sg8
g9
(I544
I736
I32
I32
tp2389
Rp2390
sba(iMap
Tiles
p2391
(dp2392
g3
g4
sg5
I01
sg6
I18
sg7
I23
sg8
g9
(I576
I736
I32
I32
tp2393
Rp2394
sba(iMap
Tiles
p2395
(dp2396
g3
g4
sg5
I01
sg6
I19
sg7
I23
sg8
g9
(I608
I736
I32
I32
tp2397
Rp2398
sba(iMap
Tiles
p2399
(dp2400
g3
g4
sg5
I01
sg6
I20
sg7
I23
sg8
g9
(I640
I736
I32
I32
tp2401
Rp2402
sba(iMap
Tiles
p2403
(dp2404
g3
g4
sg5
I01
sg6
I21
sg7
I23
sg8
g9
(I672
I736
I32
I32
tp2405
Rp2406
sba(iMap
Tiles
p2407
(dp2408
g3
g4
sg5
I01
sg6
I22
sg7
I23
sg8
g9
(I704
I736
I32
I32
tp2409
Rp2410
sba(iMap
Tiles
p2411
(dp2412
g3
g4
sg5
I01
sg6
I23
sg7
I23
sg8
g9
(I736
I736
I32
I32
tp2413
Rp2414
sba(iMap
Tiles
p2415
(dp2416
g3
g4
sg5
I01
sg6
I24
sg7
I23
sg8
g9
(I768
I736
I32
I32
tp2417
Rp2418
sba(iMap
Tiles
p2419
(dp2420
g3
g4
sg5
I01
sg6
I0
sg7
I24
sg8
g9
(I0
I768
I32
I32
tp2421
Rp2422
sba(iMap
Tiles
p2423
(dp2424
g3
g4
sg5
I01
sg6
I1
sg7
I24
sg8
g9
(I32
I768
I32
I32
tp2425
Rp2426
sba(iMap
Tiles
p2427
(dp2428
g3
g4
sg5
I01
sg6
I2
sg7
I24
sg8
g9
(I64
I768
I32
I32
tp2429
Rp2430
sba(iMap
Tiles
p2431
(dp2432
g3
g4
sg5
I01
sg6
I3
sg7
I24
sg8
g9
(I96
I768
I32
I32
tp2433
Rp2434
sba(iMap
Tiles
p2435
(dp2436
g3
g4
sg5
I01
sg6
I4
sg7
I24
sg8
g9
(I128
I768
I32
I32
tp2437
Rp2438
sba(iMap
Tiles
p2439
(dp2440
g3
g4
sg5
I01
sg6
I5
sg7
I24
sg8
g9
(I160
I768
I32
I32
tp2441
Rp2442
sba(iMap
Tiles
p2443
(dp2444
g3
g4
sg5
I01
sg6
I6
sg7
I24
sg8
g9
(I192
I768
I32
I32
tp2445
Rp2446
sba(iMap
Tiles
p2447
(dp2448
g3
g4
sg5
I01
sg6
I7
sg7
I24
sg8
g9
(I224
I768
I32
I32
tp2449
Rp2450
sba(iMap
Tiles
p2451
(dp2452
g3
g4
sg5
I01
sg6
I8
sg7
I24
sg8
g9
(I256
I768
I32
I32
tp2453
Rp2454
sba(iMap
Tiles
p2455
(dp2456
g3
g4
sg5
I01
sg6
I9
sg7
I24
sg8
g9
(I288
I768
I32
I32
tp2457
Rp2458
sba(iMap
Tiles
p2459
(dp2460
g3
g4
sg5
I01
sg6
I10
sg7
I24
sg8
g9
(I320
I768
I32
I32
tp2461
Rp2462
sba(iMap
Tiles
p2463
(dp2464
g3
g4
sg5
I01
sg6
I11
sg7
I24
sg8
g9
(I352
I768
I32
I32
tp2465
Rp2466
sba(iMap
Tiles
p2467
(dp2468
g3
g4
sg5
I01
sg6
I12
sg7
I24
sg8
g9
(I384
I768
I32
I32
tp2469
Rp2470
sba(iMap
Tiles
p2471
(dp2472
g3
g4
sg5
I01
sg6
I13
sg7
I24
sg8
g9
(I416
I768
I32
I32
tp2473
Rp2474
sba(iMap
Tiles
p2475
(dp2476
g3
g4
sg5
I01
sg6
I14
sg7
I24
sg8
g9
(I448
I768
I32
I32
tp2477
Rp2478
sba(iMap
Tiles
p2479
(dp2480
g3
g4
sg5
I01
sg6
I15
sg7
I24
sg8
g9
(I480
I768
I32
I32
tp2481
Rp2482
sba(iMap
Tiles
p2483
(dp2484
g3
g4
sg5
I01
sg6
I16
sg7
I24
sg8
g9
(I512
I768
I32
I32
tp2485
Rp2486
sba(iMap
Tiles
p2487
(dp2488
g3
g4
sg5
I01
sg6
I17
sg7
I24
sg8
g9
(I544
I768
I32
I32
tp2489
Rp2490
sba(iMap
Tiles
p2491
(dp2492
g3
g4
sg5
I01
sg6
I18
sg7
I24
sg8
g9
(I576
I768
I32
I32
tp2493
Rp2494
sba(iMap
Tiles
p2495
(dp2496
g3
g4
sg5
I01
sg6
I19
sg7
I24
sg8
g9
(I608
I768
I32
I32
tp2497
Rp2498
sba(iMap
Tiles
p2499
(dp2500
g3
g4
sg5
I01
sg6
I20
sg7
I24
sg8
g9
(I640
I768
I32
I32
tp2501
Rp2502
sba(iMap
Tiles
p2503
(dp2504
g3
g4
sg5
I01
sg6
I21
sg7
I24
sg8
g9
(I672
I768
I32
I32
tp2505
Rp2506
sba(iMap
Tiles
p2507
(dp2508
g3
g4
sg5
I01
sg6
I22
sg7
I24
sg8
g9
(I704
I768
I32
I32
tp2509
Rp2510
sba(iMap
Tiles
p2511
(dp2512
g3
g4
sg5
I01
sg6
I23
sg7
I24
sg8
g9
(I736
I768
I32
I32
tp2513
Rp2514
sba(iMap
Tiles
p2515
(dp2516
g3
g4
sg5
I01
sg6
I24
sg7
I24
sg8
g9
(I768
I768
I32
I32
tp2517
Rp2518
sba.